(lp1
(dp2
S'mw_weights'
p3
(lp4
F0
aF0
aF1
asa(dp5
g3
(lp6
F0
aF0.050000000000000003
aF0.94999999999999996
asa(dp7
g3
(lp8
F0
aF0.10000000000000001
aF0.90000000000000002
asa(dp9
g3
(lp10
F0
aF0.14999999999999999
aF0.84999999999999998
asa(dp11
g3
(lp12
F0
aF0.20000000000000001
aF0.80000000000000004
asa(dp13
g3
(lp14
F0
aF0.25
aF0.75
asa(dp15
g3
(lp16
F0
aF0.29999999999999999
aF0.69999999999999996
asa(dp17
g3
(lp18
F0
aF0.34999999999999998
aF0.65000000000000002
asa(dp19
g3
(lp20
F0
aF0.40000000000000002
aF0.59999999999999998
asa(dp21
g3
(lp22
F0
aF0.45000000000000001
aF0.55000000000000004
asa(dp23
g3
(lp24
F0
aF0.5
aF0.5
asa(dp25
g3
(lp26
F0
aF0.55000000000000004
aF0.45000000000000001
asa(dp27
g3
(lp28
F0
aF0.59999999999999998
aF0.40000000000000002
asa(dp29
g3
(lp30
F0
aF0.65000000000000002
aF0.34999999999999998
asa(dp31
g3
(lp32
F0
aF0.69999999999999996
aF0.29999999999999999
asa(dp33
g3
(lp34
F0
aF0.75
aF0.25
asa(dp35
g3
(lp36
F0
aF0.80000000000000004
aF0.20000000000000001
asa(dp37
g3
(lp38
F0
aF0.84999999999999998
aF0.14999999999999999
asa(dp39
g3
(lp40
F0
aF0.90000000000000002
aF0.10000000000000001
asa(dp41
g3
(lp42
F0
aF0.94999999999999996
aF0.050000000000000003
asa(dp43
g3
(lp44
F0
aF1
aF0
asa(dp45
g3
(lp46
F0.050000000000000003
aF0
aF0.94999999999999996
asa(dp47
g3
(lp48
F0.050000000000000003
aF0.050000000000000003
aF0.90000000000000002
asa(dp49
g3
(lp50
F0.050000000000000003
aF0.10000000000000001
aF0.84999999999999998
asa(dp51
g3
(lp52
F0.050000000000000003
aF0.14999999999999999
aF0.80000000000000004
asa(dp53
g3
(lp54
F0.050000000000000003
aF0.20000000000000001
aF0.75
asa(dp55
g3
(lp56
F0.050000000000000003
aF0.25
aF0.69999999999999996
asa(dp57
g3
(lp58
F0.050000000000000003
aF0.29999999999999999
aF0.65000000000000002
asa(dp59
g3
(lp60
F0.050000000000000003
aF0.34999999999999998
aF0.59999999999999998
asa(dp61
g3
(lp62
F0.050000000000000003
aF0.40000000000000002
aF0.55000000000000004
asa(dp63
g3
(lp64
F0.050000000000000003
aF0.45000000000000001
aF0.5
asa(dp65
g3
(lp66
F0.050000000000000003
aF0.5
aF0.45000000000000001
asa(dp67
g3
(lp68
F0.050000000000000003
aF0.55000000000000004
aF0.40000000000000002
asa(dp69
g3
(lp70
F0.050000000000000003
aF0.59999999999999998
aF0.34999999999999998
asa(dp71
g3
(lp72
F0.050000000000000003
aF0.65000000000000002
aF0.29999999999999999
asa(dp73
g3
(lp74
F0.050000000000000003
aF0.69999999999999996
aF0.25
asa(dp75
g3
(lp76
F0.050000000000000003
aF0.75
aF0.20000000000000001
asa(dp77
g3
(lp78
F0.050000000000000003
aF0.80000000000000004
aF0.14999999999999999
asa(dp79
g3
(lp80
F0.050000000000000003
aF0.84999999999999998
aF0.10000000000000001
asa(dp81
g3
(lp82
F0.050000000000000003
aF0.90000000000000002
aF0.050000000000000003
asa(dp83
g3
(lp84
F0.050000000000000003
aF0.94999999999999996
aF0
asa(dp85
g3
(lp86
F0.10000000000000001
aF0
aF0.90000000000000002
asa(dp87
g3
(lp88
F0.10000000000000001
aF0.050000000000000003
aF0.84999999999999998
asa(dp89
g3
(lp90
F0.10000000000000001
aF0.10000000000000001
aF0.80000000000000004
asa(dp91
g3
(lp92
F0.10000000000000001
aF0.14999999999999999
aF0.75
asa(dp93
g3
(lp94
F0.10000000000000001
aF0.20000000000000001
aF0.69999999999999996
asa(dp95
g3
(lp96
F0.10000000000000001
aF0.25
aF0.65000000000000002
asa(dp97
g3
(lp98
F0.10000000000000001
aF0.29999999999999999
aF0.59999999999999998
asa(dp99
g3
(lp100
F0.10000000000000001
aF0.34999999999999998
aF0.55000000000000004
asa(dp101
g3
(lp102
F0.10000000000000001
aF0.40000000000000002
aF0.5
asa(dp103
g3
(lp104
F0.10000000000000001
aF0.45000000000000001
aF0.45000000000000001
asa(dp105
g3
(lp106
F0.10000000000000001
aF0.5
aF0.40000000000000002
asa(dp107
g3
(lp108
F0.10000000000000001
aF0.55000000000000004
aF0.34999999999999998
asa(dp109
g3
(lp110
F0.10000000000000001
aF0.59999999999999998
aF0.29999999999999999
asa(dp111
g3
(lp112
F0.10000000000000001
aF0.65000000000000002
aF0.25
asa(dp113
g3
(lp114
F0.10000000000000001
aF0.69999999999999996
aF0.20000000000000001
asa(dp115
g3
(lp116
F0.10000000000000001
aF0.75
aF0.14999999999999999
asa(dp117
g3
(lp118
F0.10000000000000001
aF0.80000000000000004
aF0.10000000000000001
asa(dp119
g3
(lp120
F0.10000000000000001
aF0.84999999999999998
aF0.050000000000000003
asa(dp121
g3
(lp122
F0.10000000000000001
aF0.90000000000000002
aF0
asa(dp123
g3
(lp124
F0.14999999999999999
aF0
aF0.84999999999999998
asa(dp125
g3
(lp126
F0.14999999999999999
aF0.050000000000000003
aF0.80000000000000004
asa(dp127
g3
(lp128
F0.14999999999999999
aF0.10000000000000001
aF0.75
asa(dp129
g3
(lp130
F0.14999999999999999
aF0.14999999999999999
aF0.69999999999999996
asa(dp131
g3
(lp132
F0.14999999999999999
aF0.20000000000000001
aF0.65000000000000002
asa(dp133
g3
(lp134
F0.14999999999999999
aF0.25
aF0.59999999999999998
asa(dp135
g3
(lp136
F0.14999999999999999
aF0.29999999999999999
aF0.55000000000000004
asa(dp137
g3
(lp138
F0.14999999999999999
aF0.34999999999999998
aF0.5
asa(dp139
g3
(lp140
F0.14999999999999999
aF0.40000000000000002
aF0.45000000000000001
asa(dp141
g3
(lp142
F0.14999999999999999
aF0.45000000000000001
aF0.40000000000000002
asa(dp143
g3
(lp144
F0.14999999999999999
aF0.5
aF0.34999999999999998
asa(dp145
g3
(lp146
F0.14999999999999999
aF0.55000000000000004
aF0.29999999999999999
asa(dp147
g3
(lp148
F0.14999999999999999
aF0.59999999999999998
aF0.25
asa(dp149
g3
(lp150
F0.14999999999999999
aF0.65000000000000002
aF0.20000000000000001
asa(dp151
g3
(lp152
F0.14999999999999999
aF0.69999999999999996
aF0.14999999999999999
asa(dp153
g3
(lp154
F0.14999999999999999
aF0.75
aF0.10000000000000001
asa(dp155
g3
(lp156
F0.14999999999999999
aF0.80000000000000004
aF0.050000000000000003
asa(dp157
g3
(lp158
F0.14999999999999999
aF0.84999999999999998
aF0
asa(dp159
g3
(lp160
F0.20000000000000001
aF0
aF0.80000000000000004
asa(dp161
g3
(lp162
F0.20000000000000001
aF0.050000000000000003
aF0.75
asa(dp163
g3
(lp164
F0.20000000000000001
aF0.10000000000000001
aF0.69999999999999996
asa(dp165
g3
(lp166
F0.20000000000000001
aF0.14999999999999999
aF0.65000000000000002
asa(dp167
g3
(lp168
F0.20000000000000001
aF0.20000000000000001
aF0.59999999999999998
asa(dp169
g3
(lp170
F0.20000000000000001
aF0.25
aF0.55000000000000004
asa(dp171
g3
(lp172
F0.20000000000000001
aF0.29999999999999999
aF0.5
asa(dp173
g3
(lp174
F0.20000000000000001
aF0.34999999999999998
aF0.45000000000000001
asa(dp175
g3
(lp176
F0.20000000000000001
aF0.40000000000000002
aF0.40000000000000002
asa(dp177
g3
(lp178
F0.20000000000000001
aF0.45000000000000001
aF0.34999999999999998
asa(dp179
g3
(lp180
F0.20000000000000001
aF0.5
aF0.29999999999999999
asa(dp181
g3
(lp182
F0.20000000000000001
aF0.55000000000000004
aF0.25
asa(dp183
g3
(lp184
F0.20000000000000001
aF0.59999999999999998
aF0.20000000000000001
asa(dp185
g3
(lp186
F0.20000000000000001
aF0.65000000000000002
aF0.14999999999999999
asa(dp187
g3
(lp188
F0.20000000000000001
aF0.69999999999999996
aF0.10000000000000001
asa(dp189
g3
(lp190
F0.20000000000000001
aF0.75
aF0.050000000000000003
asa(dp191
g3
(lp192
F0.20000000000000001
aF0.80000000000000004
aF0
asa(dp193
g3
(lp194
F0.25
aF0
aF0.75
asa(dp195
g3
(lp196
F0.25
aF0.050000000000000003
aF0.69999999999999996
asa(dp197
g3
(lp198
F0.25
aF0.10000000000000001
aF0.65000000000000002
asa(dp199
g3
(lp200
F0.25
aF0.14999999999999999
aF0.59999999999999998
asa(dp201
g3
(lp202
F0.25
aF0.20000000000000001
aF0.55000000000000004
asa(dp203
g3
(lp204
F0.25
aF0.25
aF0.5
asa(dp205
g3
(lp206
F0.25
aF0.29999999999999999
aF0.45000000000000001
asa(dp207
g3
(lp208
F0.25
aF0.34999999999999998
aF0.40000000000000002
asa(dp209
g3
(lp210
F0.25
aF0.40000000000000002
aF0.34999999999999998
asa(dp211
g3
(lp212
F0.25
aF0.45000000000000001
aF0.29999999999999999
asa(dp213
g3
(lp214
F0.25
aF0.5
aF0.25
asa(dp215
g3
(lp216
F0.25
aF0.55000000000000004
aF0.20000000000000001
asa(dp217
g3
(lp218
F0.25
aF0.59999999999999998
aF0.14999999999999999
asa(dp219
g3
(lp220
F0.25
aF0.65000000000000002
aF0.10000000000000001
asa(dp221
g3
(lp222
F0.25
aF0.69999999999999996
aF0.050000000000000003
asa(dp223
g3
(lp224
F0.25
aF0.75
aF0
asa(dp225
g3
(lp226
F0.29999999999999999
aF0
aF0.69999999999999996
asa(dp227
g3
(lp228
F0.29999999999999999
aF0.050000000000000003
aF0.65000000000000002
asa(dp229
g3
(lp230
F0.29999999999999999
aF0.10000000000000001
aF0.59999999999999998
asa(dp231
g3
(lp232
F0.29999999999999999
aF0.14999999999999999
aF0.55000000000000004
asa(dp233
g3
(lp234
F0.29999999999999999
aF0.20000000000000001
aF0.5
asa(dp235
g3
(lp236
F0.29999999999999999
aF0.25
aF0.45000000000000001
asa(dp237
g3
(lp238
F0.29999999999999999
aF0.29999999999999999
aF0.40000000000000002
asa(dp239
g3
(lp240
F0.29999999999999999
aF0.34999999999999998
aF0.34999999999999998
asa(dp241
g3
(lp242
F0.29999999999999999
aF0.40000000000000002
aF0.29999999999999999
asa(dp243
g3
(lp244
F0.29999999999999999
aF0.45000000000000001
aF0.25
asa(dp245
g3
(lp246
F0.29999999999999999
aF0.5
aF0.20000000000000001
asa(dp247
g3
(lp248
F0.29999999999999999
aF0.55000000000000004
aF0.14999999999999999
asa(dp249
g3
(lp250
F0.29999999999999999
aF0.59999999999999998
aF0.10000000000000001
asa(dp251
g3
(lp252
F0.29999999999999999
aF0.65000000000000002
aF0.050000000000000003
asa(dp253
g3
(lp254
F0.29999999999999999
aF0.69999999999999996
aF0
asa(dp255
g3
(lp256
F0.34999999999999998
aF0
aF0.65000000000000002
asa(dp257
g3
(lp258
F0.34999999999999998
aF0.050000000000000003
aF0.59999999999999998
asa(dp259
g3
(lp260
F0.34999999999999998
aF0.10000000000000001
aF0.55000000000000004
asa(dp261
g3
(lp262
F0.34999999999999998
aF0.14999999999999999
aF0.5
asa(dp263
g3
(lp264
F0.34999999999999998
aF0.20000000000000001
aF0.45000000000000001
asa(dp265
g3
(lp266
F0.34999999999999998
aF0.25
aF0.40000000000000002
asa(dp267
g3
(lp268
F0.34999999999999998
aF0.29999999999999999
aF0.34999999999999998
asa(dp269
g3
(lp270
F0.34999999999999998
aF0.34999999999999998
aF0.29999999999999999
asa(dp271
g3
(lp272
F0.34999999999999998
aF0.40000000000000002
aF0.25
asa(dp273
g3
(lp274
F0.34999999999999998
aF0.45000000000000001
aF0.20000000000000001
asa(dp275
g3
(lp276
F0.34999999999999998
aF0.5
aF0.14999999999999999
asa(dp277
g3
(lp278
F0.34999999999999998
aF0.55000000000000004
aF0.10000000000000001
asa(dp279
g3
(lp280
F0.34999999999999998
aF0.59999999999999998
aF0.050000000000000003
asa(dp281
g3
(lp282
F0.34999999999999998
aF0.65000000000000002
aF0
asa(dp283
g3
(lp284
F0.40000000000000002
aF0
aF0.59999999999999998
asa(dp285
g3
(lp286
F0.40000000000000002
aF0.050000000000000003
aF0.55000000000000004
asa(dp287
g3
(lp288
F0.40000000000000002
aF0.10000000000000001
aF0.5
asa(dp289
g3
(lp290
F0.40000000000000002
aF0.14999999999999999
aF0.45000000000000001
asa(dp291
g3
(lp292
F0.40000000000000002
aF0.20000000000000001
aF0.40000000000000002
asa(dp293
g3
(lp294
F0.40000000000000002
aF0.25
aF0.34999999999999998
asa(dp295
g3
(lp296
F0.40000000000000002
aF0.29999999999999999
aF0.29999999999999999
asa(dp297
g3
(lp298
F0.40000000000000002
aF0.34999999999999998
aF0.25
asa(dp299
g3
(lp300
F0.40000000000000002
aF0.40000000000000002
aF0.20000000000000001
asa(dp301
g3
(lp302
F0.40000000000000002
aF0.45000000000000001
aF0.14999999999999999
asa(dp303
g3
(lp304
F0.40000000000000002
aF0.5
aF0.10000000000000001
asa(dp305
g3
(lp306
F0.40000000000000002
aF0.55000000000000004
aF0.050000000000000003
asa(dp307
g3
(lp308
F0.40000000000000002
aF0.59999999999999998
aF0
asa(dp309
g3
(lp310
F0.45000000000000001
aF0
aF0.55000000000000004
asa(dp311
g3
(lp312
F0.45000000000000001
aF0.050000000000000003
aF0.5
asa(dp313
g3
(lp314
F0.45000000000000001
aF0.10000000000000001
aF0.45000000000000001
asa(dp315
g3
(lp316
F0.45000000000000001
aF0.14999999999999999
aF0.40000000000000002
asa(dp317
g3
(lp318
F0.45000000000000001
aF0.20000000000000001
aF0.34999999999999998
asa(dp319
g3
(lp320
F0.45000000000000001
aF0.25
aF0.29999999999999999
asa(dp321
g3
(lp322
F0.45000000000000001
aF0.29999999999999999
aF0.25
asa(dp323
g3
(lp324
F0.45000000000000001
aF0.34999999999999998
aF0.20000000000000001
asa(dp325
g3
(lp326
F0.45000000000000001
aF0.40000000000000002
aF0.14999999999999999
asa(dp327
g3
(lp328
F0.45000000000000001
aF0.45000000000000001
aF0.10000000000000001
asa(dp329
g3
(lp330
F0.45000000000000001
aF0.5
aF0.050000000000000003
asa(dp331
g3
(lp332
F0.45000000000000001
aF0.55000000000000004
aF0
asa(dp333
g3
(lp334
F0.5
aF0
aF0.5
asa(dp335
g3
(lp336
F0.5
aF0.050000000000000003
aF0.45000000000000001
asa(dp337
g3
(lp338
F0.5
aF0.10000000000000001
aF0.40000000000000002
asa(dp339
g3
(lp340
F0.5
aF0.14999999999999999
aF0.34999999999999998
asa(dp341
g3
(lp342
F0.5
aF0.20000000000000001
aF0.29999999999999999
asa(dp343
g3
(lp344
F0.5
aF0.25
aF0.25
asa(dp345
g3
(lp346
F0.5
aF0.29999999999999999
aF0.20000000000000001
asa(dp347
g3
(lp348
F0.5
aF0.34999999999999998
aF0.14999999999999999
asa(dp349
g3
(lp350
F0.5
aF0.40000000000000002
aF0.10000000000000001
asa(dp351
g3
(lp352
F0.5
aF0.45000000000000001
aF0.050000000000000003
asa(dp353
g3
(lp354
F0.5
aF0.5
aF0
asa(dp355
g3
(lp356
F0.55000000000000004
aF0
aF0.45000000000000001
asa(dp357
g3
(lp358
F0.55000000000000004
aF0.050000000000000003
aF0.40000000000000002
asa(dp359
g3
(lp360
F0.55000000000000004
aF0.10000000000000001
aF0.34999999999999998
asa(dp361
g3
(lp362
F0.55000000000000004
aF0.14999999999999999
aF0.29999999999999999
asa(dp363
g3
(lp364
F0.55000000000000004
aF0.20000000000000001
aF0.25
asa(dp365
g3
(lp366
F0.55000000000000004
aF0.25
aF0.20000000000000001
asa(dp367
g3
(lp368
F0.55000000000000004
aF0.29999999999999999
aF0.14999999999999999
asa(dp369
g3
(lp370
F0.55000000000000004
aF0.34999999999999998
aF0.10000000000000001
asa(dp371
g3
(lp372
F0.55000000000000004
aF0.40000000000000002
aF0.050000000000000003
asa(dp373
g3
(lp374
F0.55000000000000004
aF0.45000000000000001
aF0
asa(dp375
g3
(lp376
F0.59999999999999998
aF0
aF0.40000000000000002
asa(dp377
g3
(lp378
F0.59999999999999998
aF0.050000000000000003
aF0.34999999999999998
asa(dp379
g3
(lp380
F0.59999999999999998
aF0.10000000000000001
aF0.29999999999999999
asa(dp381
g3
(lp382
F0.59999999999999998
aF0.14999999999999999
aF0.25
asa(dp383
g3
(lp384
F0.59999999999999998
aF0.20000000000000001
aF0.20000000000000001
asa(dp385
g3
(lp386
F0.59999999999999998
aF0.25
aF0.14999999999999999
asa(dp387
g3
(lp388
F0.59999999999999998
aF0.29999999999999999
aF0.10000000000000001
asa(dp389
g3
(lp390
F0.59999999999999998
aF0.34999999999999998
aF0.050000000000000003
asa(dp391
g3
(lp392
F0.59999999999999998
aF0.40000000000000002
aF0
asa(dp393
g3
(lp394
F0.65000000000000002
aF0
aF0.34999999999999998
asa(dp395
g3
(lp396
F0.65000000000000002
aF0.050000000000000003
aF0.29999999999999999
asa(dp397
g3
(lp398
F0.65000000000000002
aF0.10000000000000001
aF0.25
asa(dp399
g3
(lp400
F0.65000000000000002
aF0.14999999999999999
aF0.20000000000000001
asa(dp401
g3
(lp402
F0.65000000000000002
aF0.20000000000000001
aF0.14999999999999999
asa(dp403
g3
(lp404
F0.65000000000000002
aF0.25
aF0.10000000000000001
asa(dp405
g3
(lp406
F0.65000000000000002
aF0.29999999999999999
aF0.050000000000000003
asa(dp407
g3
(lp408
F0.65000000000000002
aF0.34999999999999998
aF0
asa(dp409
g3
(lp410
F0.69999999999999996
aF0
aF0.29999999999999999
asa(dp411
g3
(lp412
F0.69999999999999996
aF0.050000000000000003
aF0.25
asa(dp413
g3
(lp414
F0.69999999999999996
aF0.10000000000000001
aF0.20000000000000001
asa(dp415
g3
(lp416
F0.69999999999999996
aF0.14999999999999999
aF0.14999999999999999
asa(dp417
g3
(lp418
F0.69999999999999996
aF0.20000000000000001
aF0.10000000000000001
asa(dp419
g3
(lp420
F0.69999999999999996
aF0.25
aF0.050000000000000003
asa(dp421
g3
(lp422
F0.69999999999999996
aF0.29999999999999999
aF0
asa(dp423
g3
(lp424
F0.75
aF0
aF0.25
asa(dp425
g3
(lp426
F0.75
aF0.050000000000000003
aF0.20000000000000001
asa(dp427
g3
(lp428
F0.75
aF0.10000000000000001
aF0.14999999999999999
asa(dp429
g3
(lp430
F0.75
aF0.14999999999999999
aF0.10000000000000001
asa(dp431
g3
(lp432
F0.75
aF0.20000000000000001
aF0.050000000000000003
asa(dp433
g3
(lp434
F0.75
aF0.25
aF0
asa(dp435
g3
(lp436
F0.80000000000000004
aF0
aF0.20000000000000001
asa(dp437
g3
(lp438
F0.80000000000000004
aF0.050000000000000003
aF0.14999999999999999
asa(dp439
g3
(lp440
F0.80000000000000004
aF0.10000000000000001
aF0.10000000000000001
asa(dp441
g3
(lp442
F0.80000000000000004
aF0.14999999999999999
aF0.050000000000000003
asa(dp443
g3
(lp444
F0.80000000000000004
aF0.20000000000000001
aF0
asa(dp445
g3
(lp446
F0.84999999999999998
aF0
aF0.14999999999999999
asa(dp447
g3
(lp448
F0.84999999999999998
aF0.050000000000000003
aF0.10000000000000001
asa(dp449
g3
(lp450
F0.84999999999999998
aF0.10000000000000001
aF0.050000000000000003
asa(dp451
g3
(lp452
F0.84999999999999998
aF0.14999999999999999
aF0
asa(dp453
g3
(lp454
F0.90000000000000002
aF0
aF0.10000000000000001
asa(dp455
g3
(lp456
F0.90000000000000002
aF0.050000000000000003
aF0.050000000000000003
asa(dp457
g3
(lp458
F0.90000000000000002
aF0.10000000000000001
aF0
asa(dp459
g3
(lp460
F0.94999999999999996
aF0
aF0.050000000000000003
asa(dp461
g3
(lp462
F0.94999999999999996
aF0.050000000000000003
aF0
asa(dp463
g3
(lp464
F1
aF0
aF0
asa.