(lp1
(dp2
S'mw_weights'
p3
(lp4
F0.17999999999999999
aF0.25
aF0.56999999999999995
asa(dp5
g3
(lp6
F0.17999999999999999
aF0.26000000000000001
aF0.56000000000000005
asa(dp7
g3
(lp8
F0.17999999999999999
aF0.27000000000000002
aF0.55000000000000004
asa(dp9
g3
(lp10
F0.17999999999999999
aF0.28000000000000003
aF0.54000000000000004
asa(dp11
g3
(lp12
F0.17999999999999999
aF0.28999999999999998
aF0.53000000000000003
asa(dp13
g3
(lp14
F0.17999999999999999
aF0.29999999999999999
aF0.52000000000000002
asa(dp15
g3
(lp16
F0.17999999999999999
aF0.31
aF0.51000000000000001
asa(dp17
g3
(lp18
F0.17999999999999999
aF0.32000000000000001
aF0.5
asa(dp19
g3
(lp20
F0.17999999999999999
aF0.33000000000000002
aF0.48999999999999999
asa(dp21
g3
(lp22
F0.17999999999999999
aF0.34000000000000002
aF0.47999999999999998
asa(dp23
g3
(lp24
F0.17999999999999999
aF0.34999999999999998
aF0.46999999999999997
asa(dp25
g3
(lp26
F0.17999999999999999
aF0.35999999999999999
aF0.46000000000000002
asa(dp27
g3
(lp28
F0.17999999999999999
aF0.37
aF0.45000000000000001
asa(dp29
g3
(lp30
F0.17999999999999999
aF0.38
aF0.44
asa(dp31
g3
(lp32
F0.17999999999999999
aF0.39000000000000001
aF0.42999999999999999
asa(dp33
g3
(lp34
F0.17999999999999999
aF0.40000000000000002
aF0.41999999999999998
asa(dp35
g3
(lp36
F0.17999999999999999
aF0.40999999999999998
aF0.40999999999999998
asa(dp37
g3
(lp38
F0.17999999999999999
aF0.41999999999999998
aF0.40000000000000002
asa(dp39
g3
(lp40
F0.17999999999999999
aF0.42999999999999999
aF0.39000000000000001
asa(dp41
g3
(lp42
F0.17999999999999999
aF0.44
aF0.38
asa(dp43
g3
(lp44
F0.17999999999999999
aF0.45000000000000001
aF0.37
asa(dp45
g3
(lp46
F0.17999999999999999
aF0.46000000000000002
aF0.35999999999999999
asa(dp47
g3
(lp48
F0.17999999999999999
aF0.46999999999999997
aF0.34999999999999998
asa(dp49
g3
(lp50
F0.17999999999999999
aF0.47999999999999998
aF0.34000000000000002
asa(dp51
g3
(lp52
F0.17999999999999999
aF0.48999999999999999
aF0.33000000000000002
asa(dp53
g3
(lp54
F0.17999999999999999
aF0.5
aF0.32000000000000001
asa.