(lp1
(dp2
S'responder_args'
p3
(dp4
S'share_weight'
p5
F0
ssS'game_args'
p6
(dp7
S'mw_share_prob'
p8
F0
ssa(dp9
g3
(dp10
g5
F0.10000000000000001
ssg6
(dp11
g8
F0
ssa(dp12
g3
(dp13
g5
F0.20000000000000001
ssg6
(dp14
g8
F0
ssa(dp15
g3
(dp16
g5
F0.29999999999999999
ssg6
(dp17
g8
F0
ssa(dp18
g3
(dp19
g5
F0.40000000000000002
ssg6
(dp20
g8
F0
ssa(dp21
g3
(dp22
g5
F0.5
ssg6
(dp23
g8
F0
ssa(dp24
g3
(dp25
g5
F0.59999999999999998
ssg6
(dp26
g8
F0
ssa(dp27
g3
(dp28
g5
F0.69999999999999996
ssg6
(dp29
g8
F0
ssa(dp30
g3
(dp31
g5
F0.80000000000000004
ssg6
(dp32
g8
F0
ssa(dp33
g3
(dp34
g5
F0.90000000000000002
ssg6
(dp35
g8
F0
ssa(dp36
g3
(dp37
g5
F1
ssg6
(dp38
g8
F0
ssa(dp39
g3
(dp40
g5
F0
ssg6
(dp41
g8
F0.10000000000000001
ssa(dp42
g3
(dp43
g5
F0.10000000000000001
ssg6
(dp44
g8
F0.10000000000000001
ssa(dp45
g3
(dp46
g5
F0.20000000000000001
ssg6
(dp47
g8
F0.10000000000000001
ssa(dp48
g3
(dp49
g5
F0.29999999999999999
ssg6
(dp50
g8
F0.10000000000000001
ssa(dp51
g3
(dp52
g5
F0.40000000000000002
ssg6
(dp53
g8
F0.10000000000000001
ssa(dp54
g3
(dp55
g5
F0.5
ssg6
(dp56
g8
F0.10000000000000001
ssa(dp57
g3
(dp58
g5
F0.59999999999999998
ssg6
(dp59
g8
F0.10000000000000001
ssa(dp60
g3
(dp61
g5
F0.69999999999999996
ssg6
(dp62
g8
F0.10000000000000001
ssa(dp63
g3
(dp64
g5
F0.80000000000000004
ssg6
(dp65
g8
F0.10000000000000001
ssa(dp66
g3
(dp67
g5
F0.90000000000000002
ssg6
(dp68
g8
F0.10000000000000001
ssa(dp69
g3
(dp70
g5
F1
ssg6
(dp71
g8
F0.10000000000000001
ssa(dp72
g3
(dp73
g5
F0
ssg6
(dp74
g8
F0.20000000000000001
ssa(dp75
g3
(dp76
g5
F0.10000000000000001
ssg6
(dp77
g8
F0.20000000000000001
ssa(dp78
g3
(dp79
g5
F0.20000000000000001
ssg6
(dp80
g8
F0.20000000000000001
ssa(dp81
g3
(dp82
g5
F0.29999999999999999
ssg6
(dp83
g8
F0.20000000000000001
ssa(dp84
g3
(dp85
g5
F0.40000000000000002
ssg6
(dp86
g8
F0.20000000000000001
ssa(dp87
g3
(dp88
g5
F0.5
ssg6
(dp89
g8
F0.20000000000000001
ssa(dp90
g3
(dp91
g5
F0.59999999999999998
ssg6
(dp92
g8
F0.20000000000000001
ssa(dp93
g3
(dp94
g5
F0.69999999999999996
ssg6
(dp95
g8
F0.20000000000000001
ssa(dp96
g3
(dp97
g5
F0.80000000000000004
ssg6
(dp98
g8
F0.20000000000000001
ssa(dp99
g3
(dp100
g5
F0.90000000000000002
ssg6
(dp101
g8
F0.20000000000000001
ssa(dp102
g3
(dp103
g5
F1
ssg6
(dp104
g8
F0.20000000000000001
ssa(dp105
g3
(dp106
g5
F0
ssg6
(dp107
g8
F0.29999999999999999
ssa(dp108
g3
(dp109
g5
F0.10000000000000001
ssg6
(dp110
g8
F0.29999999999999999
ssa(dp111
g3
(dp112
g5
F0.20000000000000001
ssg6
(dp113
g8
F0.29999999999999999
ssa(dp114
g3
(dp115
g5
F0.29999999999999999
ssg6
(dp116
g8
F0.29999999999999999
ssa(dp117
g3
(dp118
g5
F0.40000000000000002
ssg6
(dp119
g8
F0.29999999999999999
ssa(dp120
g3
(dp121
g5
F0.5
ssg6
(dp122
g8
F0.29999999999999999
ssa(dp123
g3
(dp124
g5
F0.59999999999999998
ssg6
(dp125
g8
F0.29999999999999999
ssa(dp126
g3
(dp127
g5
F0.69999999999999996
ssg6
(dp128
g8
F0.29999999999999999
ssa(dp129
g3
(dp130
g5
F0.80000000000000004
ssg6
(dp131
g8
F0.29999999999999999
ssa(dp132
g3
(dp133
g5
F0.90000000000000002
ssg6
(dp134
g8
F0.29999999999999999
ssa(dp135
g3
(dp136
g5
F1
ssg6
(dp137
g8
F0.29999999999999999
ssa(dp138
g3
(dp139
g5
F0
ssg6
(dp140
g8
F0.40000000000000002
ssa(dp141
g3
(dp142
g5
F0.10000000000000001
ssg6
(dp143
g8
F0.40000000000000002
ssa(dp144
g3
(dp145
g5
F0.20000000000000001
ssg6
(dp146
g8
F0.40000000000000002
ssa(dp147
g3
(dp148
g5
F0.29999999999999999
ssg6
(dp149
g8
F0.40000000000000002
ssa(dp150
g3
(dp151
g5
F0.40000000000000002
ssg6
(dp152
g8
F0.40000000000000002
ssa(dp153
g3
(dp154
g5
F0.5
ssg6
(dp155
g8
F0.40000000000000002
ssa(dp156
g3
(dp157
g5
F0.59999999999999998
ssg6
(dp158
g8
F0.40000000000000002
ssa(dp159
g3
(dp160
g5
F0.69999999999999996
ssg6
(dp161
g8
F0.40000000000000002
ssa(dp162
g3
(dp163
g5
F0.80000000000000004
ssg6
(dp164
g8
F0.40000000000000002
ssa(dp165
g3
(dp166
g5
F0.90000000000000002
ssg6
(dp167
g8
F0.40000000000000002
ssa(dp168
g3
(dp169
g5
F1
ssg6
(dp170
g8
F0.40000000000000002
ssa(dp171
g3
(dp172
g5
F0
ssg6
(dp173
g8
F0.5
ssa(dp174
g3
(dp175
g5
F0.10000000000000001
ssg6
(dp176
g8
F0.5
ssa(dp177
g3
(dp178
g5
F0.20000000000000001
ssg6
(dp179
g8
F0.5
ssa(dp180
g3
(dp181
g5
F0.29999999999999999
ssg6
(dp182
g8
F0.5
ssa(dp183
g3
(dp184
g5
F0.40000000000000002
ssg6
(dp185
g8
F0.5
ssa(dp186
g3
(dp187
g5
F0.5
ssg6
(dp188
g8
F0.5
ssa(dp189
g3
(dp190
g5
F0.59999999999999998
ssg6
(dp191
g8
F0.5
ssa(dp192
g3
(dp193
g5
F0.69999999999999996
ssg6
(dp194
g8
F0.5
ssa(dp195
g3
(dp196
g5
F0.80000000000000004
ssg6
(dp197
g8
F0.5
ssa(dp198
g3
(dp199
g5
F0.90000000000000002
ssg6
(dp200
g8
F0.5
ssa(dp201
g3
(dp202
g5
F1
ssg6
(dp203
g8
F0.5
ssa(dp204
g3
(dp205
g5
F0
ssg6
(dp206
g8
F0.59999999999999998
ssa(dp207
g3
(dp208
g5
F0.10000000000000001
ssg6
(dp209
g8
F0.59999999999999998
ssa(dp210
g3
(dp211
g5
F0.20000000000000001
ssg6
(dp212
g8
F0.59999999999999998
ssa(dp213
g3
(dp214
g5
F0.29999999999999999
ssg6
(dp215
g8
F0.59999999999999998
ssa(dp216
g3
(dp217
g5
F0.40000000000000002
ssg6
(dp218
g8
F0.59999999999999998
ssa(dp219
g3
(dp220
g5
F0.5
ssg6
(dp221
g8
F0.59999999999999998
ssa(dp222
g3
(dp223
g5
F0.59999999999999998
ssg6
(dp224
g8
F0.59999999999999998
ssa(dp225
g3
(dp226
g5
F0.69999999999999996
ssg6
(dp227
g8
F0.59999999999999998
ssa(dp228
g3
(dp229
g5
F0.80000000000000004
ssg6
(dp230
g8
F0.59999999999999998
ssa(dp231
g3
(dp232
g5
F0.90000000000000002
ssg6
(dp233
g8
F0.59999999999999998
ssa(dp234
g3
(dp235
g5
F1
ssg6
(dp236
g8
F0.59999999999999998
ssa(dp237
g3
(dp238
g5
F0
ssg6
(dp239
g8
F0.69999999999999996
ssa(dp240
g3
(dp241
g5
F0.10000000000000001
ssg6
(dp242
g8
F0.69999999999999996
ssa(dp243
g3
(dp244
g5
F0.20000000000000001
ssg6
(dp245
g8
F0.69999999999999996
ssa(dp246
g3
(dp247
g5
F0.29999999999999999
ssg6
(dp248
g8
F0.69999999999999996
ssa(dp249
g3
(dp250
g5
F0.40000000000000002
ssg6
(dp251
g8
F0.69999999999999996
ssa(dp252
g3
(dp253
g5
F0.5
ssg6
(dp254
g8
F0.69999999999999996
ssa(dp255
g3
(dp256
g5
F0.59999999999999998
ssg6
(dp257
g8
F0.69999999999999996
ssa(dp258
g3
(dp259
g5
F0.69999999999999996
ssg6
(dp260
g8
F0.69999999999999996
ssa(dp261
g3
(dp262
g5
F0.80000000000000004
ssg6
(dp263
g8
F0.69999999999999996
ssa(dp264
g3
(dp265
g5
F0.90000000000000002
ssg6
(dp266
g8
F0.69999999999999996
ssa(dp267
g3
(dp268
g5
F1
ssg6
(dp269
g8
F0.69999999999999996
ssa(dp270
g3
(dp271
g5
F0
ssg6
(dp272
g8
F0.80000000000000004
ssa(dp273
g3
(dp274
g5
F0.10000000000000001
ssg6
(dp275
g8
F0.80000000000000004
ssa(dp276
g3
(dp277
g5
F0.20000000000000001
ssg6
(dp278
g8
F0.80000000000000004
ssa(dp279
g3
(dp280
g5
F0.29999999999999999
ssg6
(dp281
g8
F0.80000000000000004
ssa(dp282
g3
(dp283
g5
F0.40000000000000002
ssg6
(dp284
g8
F0.80000000000000004
ssa(dp285
g3
(dp286
g5
F0.5
ssg6
(dp287
g8
F0.80000000000000004
ssa(dp288
g3
(dp289
g5
F0.59999999999999998
ssg6
(dp290
g8
F0.80000000000000004
ssa(dp291
g3
(dp292
g5
F0.69999999999999996
ssg6
(dp293
g8
F0.80000000000000004
ssa(dp294
g3
(dp295
g5
F0.80000000000000004
ssg6
(dp296
g8
F0.80000000000000004
ssa(dp297
g3
(dp298
g5
F0.90000000000000002
ssg6
(dp299
g8
F0.80000000000000004
ssa(dp300
g3
(dp301
g5
F1
ssg6
(dp302
g8
F0.80000000000000004
ssa(dp303
g3
(dp304
g5
F0
ssg6
(dp305
g8
F0.90000000000000002
ssa(dp306
g3
(dp307
g5
F0.10000000000000001
ssg6
(dp308
g8
F0.90000000000000002
ssa(dp309
g3
(dp310
g5
F0.20000000000000001
ssg6
(dp311
g8
F0.90000000000000002
ssa(dp312
g3
(dp313
g5
F0.29999999999999999
ssg6
(dp314
g8
F0.90000000000000002
ssa(dp315
g3
(dp316
g5
F0.40000000000000002
ssg6
(dp317
g8
F0.90000000000000002
ssa(dp318
g3
(dp319
g5
F0.5
ssg6
(dp320
g8
F0.90000000000000002
ssa(dp321
g3
(dp322
g5
F0.59999999999999998
ssg6
(dp323
g8
F0.90000000000000002
ssa(dp324
g3
(dp325
g5
F0.69999999999999996
ssg6
(dp326
g8
F0.90000000000000002
ssa(dp327
g3
(dp328
g5
F0.80000000000000004
ssg6
(dp329
g8
F0.90000000000000002
ssa(dp330
g3
(dp331
g5
F0.90000000000000002
ssg6
(dp332
g8
F0.90000000000000002
ssa(dp333
g3
(dp334
g5
F1
ssg6
(dp335
g8
F0.90000000000000002
ssa(dp336
g3
(dp337
g5
F0
ssg6
(dp338
g8
F1
ssa(dp339
g3
(dp340
g5
F0.10000000000000001
ssg6
(dp341
g8
F1
ssa(dp342
g3
(dp343
g5
F0.20000000000000001
ssg6
(dp344
g8
F1
ssa(dp345
g3
(dp346
g5
F0.29999999999999999
ssg6
(dp347
g8
F1
ssa(dp348
g3
(dp349
g5
F0.40000000000000002
ssg6
(dp350
g8
F1
ssa(dp351
g3
(dp352
g5
F0.5
ssg6
(dp353
g8
F1
ssa(dp354
g3
(dp355
g5
F0.59999999999999998
ssg6
(dp356
g8
F1
ssa(dp357
g3
(dp358
g5
F0.69999999999999996
ssg6
(dp359
g8
F1
ssa(dp360
g3
(dp361
g5
F0.80000000000000004
ssg6
(dp362
g8
F1
ssa(dp363
g3
(dp364
g5
F0.90000000000000002
ssg6
(dp365
g8
F1
ssa(dp366
g3
(dp367
g5
F1
ssg6
(dp368
g8
F1
ssa.