(lp1
(dp2
S'responder_args'
p3
(dp4
S'share_weight'
p5
F0.14000000000000001
ssS'game_args'
p6
(dp7
S'mw_share_prob'
p8
F0.85999999999999999
ssa(dp9
g3
(dp10
g5
F0.14999999999999999
ssg6
(dp11
g8
F0.85999999999999999
ssa(dp12
g3
(dp13
g5
F0.16
ssg6
(dp14
g8
F0.85999999999999999
ssa(dp15
g3
(dp16
g5
F0.17000000000000001
ssg6
(dp17
g8
F0.85999999999999999
ssa(dp18
g3
(dp19
g5
F0.17999999999999999
ssg6
(dp20
g8
F0.85999999999999999
ssa(dp21
g3
(dp22
g5
F0.19
ssg6
(dp23
g8
F0.85999999999999999
ssa(dp24
g3
(dp25
g5
F0.20000000000000001
ssg6
(dp26
g8
F0.85999999999999999
ssa(dp27
g3
(dp28
g5
F0.20999999999999999
ssg6
(dp29
g8
F0.85999999999999999
ssa(dp30
g3
(dp31
g5
F0.22
ssg6
(dp32
g8
F0.85999999999999999
ssa(dp33
g3
(dp34
g5
F0.23000000000000001
ssg6
(dp35
g8
F0.85999999999999999
ssa(dp36
g3
(dp37
g5
F0.23999999999999999
ssg6
(dp38
g8
F0.85999999999999999
ssa(dp39
g3
(dp40
g5
F0.25
ssg6
(dp41
g8
F0.85999999999999999
ssa(dp42
g3
(dp43
g5
F0.26000000000000001
ssg6
(dp44
g8
F0.85999999999999999
ssa(dp45
g3
(dp46
g5
F0.27000000000000002
ssg6
(dp47
g8
F0.85999999999999999
ssa(dp48
g3
(dp49
g5
F0.28000000000000003
ssg6
(dp50
g8
F0.85999999999999999
ssa(dp51
g3
(dp52
g5
F0.28999999999999998
ssg6
(dp53
g8
F0.85999999999999999
ssa(dp54
g3
(dp55
g5
F0.29999999999999999
ssg6
(dp56
g8
F0.85999999999999999
ssa(dp57
g3
(dp58
g5
F0.31
ssg6
(dp59
g8
F0.85999999999999999
ssa(dp60
g3
(dp61
g5
F0.32000000000000001
ssg6
(dp62
g8
F0.85999999999999999
ssa(dp63
g3
(dp64
g5
F0.33000000000000002
ssg6
(dp65
g8
F0.85999999999999999
ssa(dp66
g3
(dp67
g5
F0.34000000000000002
ssg6
(dp68
g8
F0.85999999999999999
ssa(dp69
g3
(dp70
g5
F0.35000000000000003
ssg6
(dp71
g8
F0.85999999999999999
ssa(dp72
g3
(dp73
g5
F0.35999999999999999
ssg6
(dp74
g8
F0.85999999999999999
ssa(dp75
g3
(dp76
g5
F0.37
ssg6
(dp77
g8
F0.85999999999999999
ssa(dp78
g3
(dp79
g5
F0.38
ssg6
(dp80
g8
F0.85999999999999999
ssa(dp81
g3
(dp82
g5
F0.39000000000000001
ssg6
(dp83
g8
F0.85999999999999999
ssa(dp84
g3
(dp85
g5
F0.40000000000000002
ssg6
(dp86
g8
F0.85999999999999999
ssa(dp87
g3
(dp88
g5
F0.41000000000000003
ssg6
(dp89
g8
F0.85999999999999999
ssa(dp90
g3
(dp91
g5
F0.41999999999999998
ssg6
(dp92
g8
F0.85999999999999999
ssa(dp93
g3
(dp94
g5
F0.42999999999999999
ssg6
(dp95
g8
F0.85999999999999999
ssa(dp96
g3
(dp97
g5
F0.44
ssg6
(dp98
g8
F0.85999999999999999
ssa(dp99
g3
(dp100
g5
F0.45000000000000001
ssg6
(dp101
g8
F0.85999999999999999
ssa(dp102
g3
(dp103
g5
F0.46000000000000002
ssg6
(dp104
g8
F0.85999999999999999
ssa(dp105
g3
(dp106
g5
F0.47000000000000003
ssg6
(dp107
g8
F0.85999999999999999
ssa(dp108
g3
(dp109
g5
F0.47999999999999998
ssg6
(dp110
g8
F0.85999999999999999
ssa(dp111
g3
(dp112
g5
F0.48999999999999999
ssg6
(dp113
g8
F0.85999999999999999
ssa(dp114
g3
(dp115
g5
F0.5
ssg6
(dp116
g8
F0.85999999999999999
ssa(dp117
g3
(dp118
g5
F0.51000000000000001
ssg6
(dp119
g8
F0.85999999999999999
ssa(dp120
g3
(dp121
g5
F0.52000000000000002
ssg6
(dp122
g8
F0.85999999999999999
ssa(dp123
g3
(dp124
g5
F0.53000000000000003
ssg6
(dp125
g8
F0.85999999999999999
ssa(dp126
g3
(dp127
g5
F0.54000000000000004
ssg6
(dp128
g8
F0.85999999999999999
ssa(dp129
g3
(dp130
g5
F0.55000000000000004
ssg6
(dp131
g8
F0.85999999999999999
ssa(dp132
g3
(dp133
g5
F0.56000000000000005
ssg6
(dp134
g8
F0.85999999999999999
ssa(dp135
g3
(dp136
g5
F0.57000000000000006
ssg6
(dp137
g8
F0.85999999999999999
ssa(dp138
g3
(dp139
g5
F0.57999999999999996
ssg6
(dp140
g8
F0.85999999999999999
ssa(dp141
g3
(dp142
g5
F0.58999999999999997
ssg6
(dp143
g8
F0.85999999999999999
ssa(dp144
g3
(dp145
g5
F0.59999999999999998
ssg6
(dp146
g8
F0.85999999999999999
ssa(dp147
g3
(dp148
g5
F0.60999999999999999
ssg6
(dp149
g8
F0.85999999999999999
ssa(dp150
g3
(dp151
g5
F0.62
ssg6
(dp152
g8
F0.85999999999999999
ssa(dp153
g3
(dp154
g5
F0.63
ssg6
(dp155
g8
F0.85999999999999999
ssa.