(lp1
(dp2
S'mw_weights'
p3
(lp4
F0.44253355117438198
aF0.034890743370537498
aF0.52257570545508003
asS'signaller_args'
p5
(dp6
S'share_weight'
p7
F0.51093995380913804
ssS'responder_args'
p8
(dp9
g7
F0.34942974703910301
ssS'women_weights'
p10
(lp11
F0.39320940732876503
aF0.37329040390046198
aF0.233500188770773
asS'game_args'
p12
(dp13
S'referral_cost'
p14
F26.525638537656999
sS'women_share_prob'
p15
F0.70605491365480699
sS'baby_payoff'
p16
F27.525638537656999
sS'type_weights'
p17
(lp18
(lp19
F2.0121724193738801
aF1
aF1
aa(lp20
F1
aF2.0121724193738801
aF1
aa(lp21
F1
aF1
aF2.0121724193738801
aasS'mw_share_prob'
p22
F0.67326139971497501
ssa(dp23
g3
(lp24
F0.39224632352285599
aF0.47493394560329
aF0.13281973087385399
asg5
(dp25
g7
F0.17885466977139
ssg8
(dp26
g7
F0.14031672044657201
ssg10
(lp27
F0.110749866278901
aF0.58541393216975002
aF0.30383620155134899
asg12
(dp28
g14
F82.724375139696605
sg15
F0.80958325738203696
sg16
F83.724375139696605
sg17
(lp29
(lp30
F13.294621197341399
aF1
aF1
aa(lp31
F1
aF13.294621197341399
aF1
aa(lp32
F1
aF1
aF13.294621197341399
aasg22
F0.21657547506736599
ssa(dp33
g3
(lp34
F0.40512317411561699
aF0.42197109228018798
aF0.17290573360419501
asg5
(dp35
g7
F0.96792779541225205
ssg8
(dp36
g7
F0.33993407282570798
ssg10
(lp37
F0.27840905364998703
aF0.39889301913727898
aF0.32269792721273399
asg12
(dp38
g14
F29.581701611145899
sg15
F0.83421069429023198
sg16
F30.581701611145899
sg17
(lp39
(lp40
F37.183100230020003
aF1
aF1
aa(lp41
F1
aF37.183100230020003
aF1
aa(lp42
F1
aF1
aF37.183100230020003
aasg22
F0.49668684298347199
ssa(dp43
g3
(lp44
F0.70949086958636298
aF0.23159605477730699
aF0.058913075636330699
asg5
(dp45
g7
F0.95173805133323197
ssg8
(dp46
g7
F0.932852448283229
ssg10
(lp47
F0.44389330345863398
aF0.438957595648925
aF0.117149100892441
asg12
(dp48
g14
F85.9679405525128
sg15
F0.96880378206609796
sg16
F86.9679405525128
sg17
(lp49
(lp50
F66.638426374242599
aF1
aF1
aa(lp51
F1
aF66.638426374242599
aF1
aa(lp52
F1
aF1
aF66.638426374242599
aasg22
F0.084435042387340203
ssa(dp53
g3
(lp54
F0.39626291022968102
aF0.54928141630737704
aF0.054455673462941098
asg5
(dp55
g7
F0.80668241638515603
ssg8
(dp56
g7
F0.72433606589911503
ssg10
(lp57
F0.48088225206742402
aF0.055955187437282103
aF0.46316256049529397
asg12
(dp58
g14
F38.790077663116897
sg15
F0.77485788270831102
sg16
F39.790077663116897
sg17
(lp59
(lp60
F82.551118979698202
aF1
aF1
aa(lp61
F1
aF82.551118979698202
aF1
aa(lp62
F1
aF1
aF82.551118979698202
aasg22
F0.54894478363625199
ssa(dp63
g3
(lp64
F0.37415691052667199
aF0.17038409431378401
aF0.45545899515954502
asg5
(dp65
g7
F0.96183529182919303
ssg8
(dp66
g7
F0.36723675943328998
ssg10
(lp67
F0.25576022184483699
aF0.68611878448965002
aF0.058120993665513702
asg12
(dp68
g14
F71.778777553327203
sg15
F0.98652374877827198
sg16
F72.778777553327203
sg17
(lp69
(lp70
F63.290986601251397
aF1
aF1
aa(lp71
F1
aF63.290986601251397
aF1
aa(lp72
F1
aF1
aF63.290986601251397
aasg22
F0.30276101774943498
ssa(dp73
g3
(lp74
F0.18865446274408099
aF0.259884266089147
aF0.55146127116677202
asg5
(dp75
g7
F0.52949710235290703
ssg8
(dp76
g7
F0.446150634764927
ssg10
(lp77
F0.456330940264221
aF0.209475406611774
aF0.33419365312400501
asg12
(dp78
g14
F34.517378589624002
sg15
F0.0327424086758401
sg16
F35.517378589624002
sg17
(lp79
(lp80
F63.535524651355097
aF1
aF1
aa(lp81
F1
aF63.535524651355097
aF1
aa(lp82
F1
aF1
aF63.535524651355097
aasg22
F0.69585564951004897
ssa(dp83
g3
(lp84
F0.21137768341905999
aF0.080061600194521507
aF0.70856071638641804
asg5
(dp85
g7
F0.64926891912298701
ssg8
(dp86
g7
F0.24960880348808101
ssg10
(lp87
F0.48631108786153698
aF0.30161505330552602
aF0.212073858832938
asg12
(dp88
g14
F1.32885679388995
sg15
F0.78140706619306
sg16
F2.3288567938899503
sg17
(lp89
(lp90
F15.9493889653831
aF1
aF1
aa(lp91
F1
aF15.9493889653831
aF1
aa(lp92
F1
aF1
aF15.9493889653831
aasg22
F0.85549435235909199
ssa(dp93
g3
(lp94
F0.55104002430117904
aF0.063919779745272104
aF0.38504019595354799
asg5
(dp95
g7
F0.25753275719820501
ssg8
(dp96
g7
F0.35350154361105501
ssg10
(lp97
F0.457122848235614
aF0.481028318334628
aF0.061848833429757603
asg12
(dp98
g14
F56.031873928811102
sg15
F0.98844183533859897
sg16
F57.031873928811102
sg17
(lp99
(lp100
F6.6780830572335796
aF1
aF1
aa(lp101
F1
aF6.6780830572335796
aF1
aa(lp102
F1
aF1
aF6.6780830572335796
aasg22
F0.22993219725322001
ssa(dp103
g3
(lp104
F0.68624363289079904
aF0.049230659905166403
aF0.26452570720403501
asg5
(dp105
g7
F0.50968926824512895
ssg8
(dp106
g7
F0.13482548782602
ssg10
(lp107
F0.26084407211947003
aF0.18164950906845401
aF0.55750641881207597
asg12
(dp108
g14
F3.5931079263334
sg15
F0.46063400440441898
sg16
F4.5931079263334
sg17
(lp109
(lp110
F62.2630673291265
aF1
aF1
aa(lp111
F1
aF62.2630673291265
aF1
aa(lp112
F1
aF1
aF62.2630673291265
aasg22
F0.015633522190037202
ssa(dp113
g3
(lp114
F0.33516132546925598
aF0.46173337007034998
aF0.20310530446039399
asg5
(dp115
g7
F0.56536607455229404
ssg8
(dp116
g7
F0.96950527097040295
ssg10
(lp117
F0.39937415914524699
aF0.58053238661967399
aF0.020093454235078599
asg12
(dp118
g14
F19.4663785559157
sg15
F0.55724000862683198
sg16
F20.4663785559157
sg17
(lp119
(lp120
F26.1680637048938
aF1
aF1
aa(lp121
F1
aF26.1680637048938
aF1
aa(lp122
F1
aF1
aF26.1680637048938
aasg22
F0.65063550721097296
ssa(dp123
g3
(lp124
F0.60390185651392803
aF0.037584992461464101
aF0.35851315102460801
asg5
(dp125
g7
F0.790102231719648
ssg8
(dp126
g7
F0.92893330207676605
ssg10
(lp127
F0.439322145687631
aF0.11069227062223699
aF0.44998558369013297
asg12
(dp128
g14
F7.4899395224475498
sg15
F0.60904092445911395
sg16
F8.4899395224475498
sg17
(lp129
(lp130
F91.315680817395602
aF1
aF1
aa(lp131
F1
aF91.315680817395602
aF1
aa(lp132
F1
aF1
aF91.315680817395602
aasg22
F0.99953794669418095
ssa(dp133
g3
(lp134
F0.47003316941057699
aF0.156361707805622
aF0.37360512278380098
asg5
(dp135
g7
F0.075423994111479306
ssg8
(dp136
g7
F0.63251513609313403
ssg10
(lp137
F0.27861366059085502
aF0.34034424679115799
aF0.38104209261798699
asg12
(dp138
g14
F3.38024086673716
sg15
F0.91294708607893005
sg16
F4.38024086673716
sg17
(lp139
(lp140
F91.561499048251093
aF1
aF1
aa(lp141
F1
aF91.561499048251093
aF1
aa(lp142
F1
aF1
aF91.561499048251093
aasg22
F0.67112107993627401
ssa(dp143
g3
(lp144
F0.41442462872108299
aF0.28351760016990402
aF0.302057771109013
asg5
(dp145
g7
F0.98645499843172701
ssg8
(dp146
g7
F0.54561657242127704
ssg10
(lp147
F0.44906913039517099
aF0.54381033066833695
aF0.0071205389364921998
asg12
(dp148
g14
F42.097360067877503
sg15
F0.53310405884985801
sg16
F43.097360067877503
sg17
(lp149
(lp150
F5.8948596264947097
aF1
aF1
aa(lp151
F1
aF5.8948596264947097
aF1
aa(lp152
F1
aF1
aF5.8948596264947097
aasg22
F0.88020088060176904
ssa(dp153
g3
(lp154
F0.32204053535098798
aF0.215840513159128
aF0.46211895148988402
asg5
(dp155
g7
F0.94620635721948898
ssg8
(dp156
g7
F0.94483987799088898
ssg10
(lp157
F0.35641263496560799
aF0.52212961947194103
aF0.12145774556245099
asg12
(dp158
g14
F32.112464614225303
sg15
F0.183962294666562
sg16
F33.112464614225303
sg17
(lp159
(lp160
F25.869119169897299
aF1
aF1
aa(lp161
F1
aF25.869119169897299
aF1
aa(lp162
F1
aF1
aF25.869119169897299
aasg22
F0.27688791667693302
ssa(dp163
g3
(lp164
F0.37814177359186502
aF0.56435029848925
aF0.057507927918885003
asg5
(dp165
g7
F0.69241069160110802
ssg8
(dp166
g7
F0.51872054853476601
ssg10
(lp167
F0.17009033672738699
aF0.42096515715542998
aF0.40894450611718303
asg12
(dp168
g14
F5.3931087856608499
sg15
F0.86767859860847196
sg16
F6.3931087856608499
sg17
(lp169
(lp170
F20.458157488346199
aF1
aF1
aa(lp171
F1
aF20.458157488346199
aF1
aa(lp172
F1
aF1
aF20.458157488346199
aasg22
F0.57573253918497402
ssa.