(lp1
(dp2
S'mw_weights'
p3
(lp4
F0.203644914369353
aF0.435545953692342
aF0.36080913193830499
asS'signaller_args'
p5
(dp6
S'share_weight'
p7
F0.089139278136426595
ssS'responder_args'
p8
(dp9
g7
F0.78993624772469095
ssS'women_weights'
p10
(lp11
F0.52205526695065896
aF0.0837249725077132
aF0.39421976054162799
asS'game_args'
p12
(dp13
S'referral_cost'
p14
F91.523476102828695
sS'women_share_prob'
p15
F0.486763973654597
sS'baby_payoff'
p16
F92.523476102828695
sS'type_weights'
p17
(lp18
(lp19
F33.881460911791798
aF1
aF1
aa(lp20
F1
aF33.881460911791798
aF1
aa(lp21
F1
aF1
aF33.881460911791798
aasS'mw_share_prob'
p22
F0.46477426554833101
ssa(dp23
g3
(lp24
F0.062818702801512097
aF0.26938946996805901
aF0.66779182723042896
asg5
(dp25
g7
F0.91545234240009499
ssg8
(dp26
g7
F0.47438804693112602
ssg10
(lp27
F0.19497799654897599
aF0.50505033834954904
aF0.29997166510147499
asg12
(dp28
g14
F57.072537965148797
sg15
F0.200917797372094
sg16
F58.072537965148797
sg17
(lp29
(lp30
F12.8675290333098
aF1
aF1
aa(lp31
F1
aF12.8675290333098
aF1
aa(lp32
F1
aF1
aF12.8675290333098
aasg22
F0.58798136962926995
ssa(dp33
g3
(lp34
F0.33917208314550101
aF0.38777545797636798
aF0.27305245887813101
asg5
(dp35
g7
F0.71236541681224497
ssg8
(dp36
g7
F0.075761050630826499
ssg10
(lp37
F0.14067750743841301
aF0.627970209914813
aF0.23135228264677299
asg12
(dp38
g14
F73.976369145014104
sg15
F0.057487263145158098
sg16
F74.976369145014104
sg17
(lp39
(lp40
F27.975735635697902
aF1
aF1
aa(lp41
F1
aF27.975735635697902
aF1
aa(lp42
F1
aF1
aF27.975735635697902
aasg22
F0.37449693860719002
ssa(dp43
g3
(lp44
F0.362197142263533
aF0.24614902067821601
aF0.39165383705825102
asg5
(dp45
g7
F0.018785892868181699
ssg8
(dp46
g7
F0.016638829387375199
ssg10
(lp47
F0.37993475311098901
aF0.13882166555855099
aF0.48124358133046002
asg12
(dp48
g14
F53.182301484015198
sg15
F0.11596476605627699
sg16
F54.182301484015198
sg17
(lp49
(lp50
F1
aF1
aF1
aa(lp51
F1
aF1
aF1
aa(lp52
F1
aF1
aF1
aasg22
F0.34463688032934398
ssa(dp53
g3
(lp54
F0.215090934011199
aF0.115007860377479
aF0.66990120561132205
asg5
(dp55
g7
F0.26243447294109501
ssg8
(dp56
g7
F0.54367802116088604
ssg10
(lp57
F0.37489896605038397
aF0.18442895142802099
aF0.44067208252159501
asg12
(dp58
g14
F39.964284943431899
sg15
F0.65126288419356604
sg16
F40.964284943431899
sg17
(lp59
(lp60
F67.028711471385705
aF1
aF1
aa(lp61
F1
aF67.028711471385705
aF1
aa(lp62
F1
aF1
aF67.028711471385705
aasg22
F0.107664705060306
ssa(dp63
g3
(lp64
F0.055172641831361301
aF0.22393042794391099
aF0.72089693022472701
asg5
(dp65
g7
F0.81258066033362397
ssg8
(dp66
g7
F0.63726219635515002
ssg10
(lp67
F0.19658769774082099
aF0.43577374405931202
aF0.36763855819986702
asg12
(dp68
g14
F39.221230587451103
sg15
F0.51057899771258197
sg16
F40.221230587451103
sg17
(lp69
(lp70
F52.393364317162899
aF1
aF1
aa(lp71
F1
aF52.393364317162899
aF1
aa(lp72
F1
aF1
aF52.393364317162899
aasg22
F0.124595772604807
ssa(dp73
g3
(lp74
F0.351655668179918
aF0.32269496560313299
aF0.32564936621694801
asg5
(dp75
g7
F0.13068882764258899
ssg8
(dp76
g7
F0.051960718374466502
ssg10
(lp77
F0.50609840401980499
aF0.18515124966622701
aF0.30875034631396803
asg12
(dp78
g14
F16.483357334700699
sg15
F0.58043594733986503
sg16
F17.483357334700699
sg17
(lp79
(lp80
F72.901357640352103
aF1
aF1
aa(lp81
F1
aF72.901357640352103
aF1
aa(lp82
F1
aF1
aF72.901357640352103
aasg22
F0.107356169188279
ssa(dp83
g3
(lp84
F0.044895886103126899
aF0.45320093502226599
aF0.501903178874608
asg5
(dp85
g7
F0.0147795037936885
ssg8
(dp86
g7
F0.48467923972173599
ssg10
(lp87
F0.069829848455675997
aF0.43755448419107001
aF0.49261566735325402
asg12
(dp88
g14
F60.788574259111797
sg15
F0.63035096903389798
sg16
F61.788574259111797
sg17
(lp89
(lp90
F30.3762542477597
aF1
aF1
aa(lp91
F1
aF30.3762542477597
aF1
aa(lp92
F1
aF1
aF30.3762542477597
aasg22
F0.70376899884722699
ssa(dp93
g3
(lp94
F0.462295876004783
aF0.32733370433042303
aF0.210370419664795
asg5
(dp95
g7
F0.223610302165034
ssg8
(dp96
g7
F0.057191481129848398
ssg10
(lp97
F0.42055795440148203
aF0.235864388663277
aF0.343577656935241
asg12
(dp98
g14
F79.681913362667004
sg15
F0.174673150892486
sg16
F80.681913362667004
sg17
(lp99
(lp100
F49.207401025130402
aF1
aF1
aa(lp101
F1
aF49.207401025130402
aF1
aa(lp102
F1
aF1
aF49.207401025130402
aasg22
F0.82690340099332404
ssa(dp103
g3
(lp104
F0.407443993760221
aF0.263442728721477
aF0.32911327751830299
asg5
(dp105
g7
F0.0173603506258223
ssg8
(dp106
g7
F0.066239057259517703
ssg10
(lp107
F0.49950535554599201
aF0.129161766748214
aF0.37133287770579498
asg12
(dp108
g14
F35.191202931383202
sg15
F0.40979583562060701
sg16
F36.191202931383202
sg17
(lp109
(lp110
F30.7512609989449
aF1
aF1
aa(lp111
F1
aF30.7512609989449
aF1
aa(lp112
F1
aF1
aF30.7512609989449
aasg22
F0.074510783152654803
ssa(dp113
g3
(lp114
F0.32431063472543298
aF0.52035474833957795
aF0.15533461693498901
asg5
(dp115
g7
F0.76558026204584195
ssg8
(dp116
g7
F0.089758168989792497
ssg10
(lp117
F0.49555361549308302
aF0.15079898770104
aF0.35364739680587698
asg12
(dp118
g14
F33.385463940619303
sg15
F0.82502731992455702
sg16
F34.385463940619303
sg17
(lp119
(lp120
F17.8117251664988
aF1
aF1
aa(lp121
F1
aF17.8117251664988
aF1
aa(lp122
F1
aF1
aF17.8117251664988
aasg22
F0.77891119493229799
ssa(dp123
g3
(lp124
F0.40576506117333799
aF0.0744740403901544
aF0.51976089843650797
asg5
(dp125
g7
F0.53658417778671696
ssg8
(dp126
g7
F0.57693218660773704
ssg10
(lp127
F0.62726112374371101
aF0.18619039053061401
aF0.18654848572567401
asg12
(dp128
g14
F96.319748247523094
sg15
F0.0274576281744521
sg16
F97.319748247523094
sg17
(lp129
(lp130
F72.368138483285705
aF1
aF1
aa(lp131
F1
aF72.368138483285705
aF1
aa(lp132
F1
aF1
aF72.368138483285705
aasg22
F0.34558211070776501
ssa(dp133
g3
(lp134
F0.032159434769621999
aF0.16527363733302999
aF0.80256692789734796
asg5
(dp135
g7
F0.50009699732589097
ssg8
(dp136
g7
F0.43860100224905202
ssg10
(lp137
F0.20565493334384
aF0.29834109058666802
aF0.49600397606949198
asg12
(dp138
g14
F44.895307972286403
sg15
F0.54249348713608903
sg16
F45.895307972286403
sg17
(lp139
(lp140
F88.588435736506
aF1
aF1
aa(lp141
F1
aF88.588435736506
aF1
aa(lp142
F1
aF1
aF88.588435736506
aasg22
F0.127270880404976
ssa(dp143
g3
(lp144
F0.20807329416546699
aF0.33802753035455402
aF0.45389917547997799
asg5
(dp145
g7
F0.36921068225812598
ssg8
(dp146
g7
F0.059546018302789903
ssg10
(lp147
F0.187295780960615
aF0.63847222377007395
aF0.17423199526931099
asg12
(dp148
g14
F46.466201008292799
sg15
F0.64247386325732803
sg16
F47.466201008292799
sg17
(lp149
(lp150
F22.9889840511381
aF1
aF1
aa(lp151
F1
aF22.9889840511381
aF1
aa(lp152
F1
aF1
aF22.9889840511381
aasg22
F0.30729639472265302
ssa(dp153
g3
(lp154
F0.38413433515684497
aF0.115745744043299
aF0.50011992079985601
asg5
(dp155
g7
F0.106396506661549
ssg8
(dp156
g7
F0.48186765376129198
ssg10
(lp157
F0.28327095770389499
aF0.31792423935582598
aF0.39880480294027898
asg12
(dp158
g14
F90.182413295133799
sg15
F0.71907342769671201
sg16
F91.182413295133799
sg17
(lp159
(lp160
F43.900632617450597
aF1
aF1
aa(lp161
F1
aF43.900632617450597
aF1
aa(lp162
F1
aF1
aF43.900632617450597
aasg22
F0.26284264304384097
ssa(dp163
g3
(lp164
F0.300400613297648
aF0.077527609967616304
aF0.62207177673473502
asg5
(dp165
g7
F0.58396162172255595
ssg8
(dp166
g7
F0.89760121967759898
ssg10
(lp167
F0.099608907098762203
aF0.15672396314954401
aF0.74366712975169402
asg12
(dp168
g14
F51.249475366857098
sg15
F0.63669239510898501
sg16
F52.249475366857098
sg17
(lp169
(lp170
F86.515716332021597
aF1
aF1
aa(lp171
F1
aF86.515716332021597
aF1
aa(lp172
F1
aF1
aF86.515716332021597
aasg22
F0.46133378755242999
ssa.