(lp1
(dp2
S'mw_weights'
p3
(lp4
F0.51849475394473399
aF0.176135719689134
aF0.30536952636613302
asS'signaller_args'
p5
(dp6
S'share_weight'
p7
F0.70373481527320103
ssS'responder_args'
p8
(dp9
g7
F0.51387565295503002
ssS'women_weights'
p10
(lp11
F0.21086195074017999
aF0.26217340503124698
aF0.52696464422857303
asS'game_args'
p12
(dp13
S'referral_cost'
p14
F36.945813537334899
sS'women_share_prob'
p15
F0.47403574670141102
sS'baby_payoff'
p16
F37.945813537334899
sS'type_weights'
p17
(lp18
(lp19
F44.508982481132897
aF1
aF1
aa(lp20
F1
aF44.508982481132897
aF1
aa(lp21
F1
aF1
aF44.508982481132897
aasS'mw_share_prob'
p22
F0.013550785856205
ssa(dp23
g3
(lp24
F0.540428461167487
aF0.45569970158630402
aF0.0038718372462088701
asg5
(dp25
g7
F0.905419795222697
ssg8
(dp26
g7
F0.76803346668952099
ssg10
(lp27
F0.35775695905482602
aF0.22384297898730701
aF0.418400061957867
asg12
(dp28
g14
F33.499980122776897
sg15
F0.062728757113800396
sg16
F34.499980122776897
sg17
(lp29
(lp30
F43.543035977063901
aF1
aF1
aa(lp31
F1
aF43.543035977063901
aF1
aa(lp32
F1
aF1
aF43.543035977063901
aasg22
F0.194621969177388
ssa(dp33
g3
(lp34
F0.34870326396000201
aF0.293868861270286
aF0.357427874769711
asg5
(dp35
g7
F0.73481512324244203
ssg8
(dp36
g7
F0.362299388448591
ssg10
(lp37
F0.082981451697340905
aF0.59563987574586097
aF0.32137867255679797
asg12
(dp38
g14
F67.358469347268894
sg15
F0.72741866476601003
sg16
F68.358469347268894
sg17
(lp39
(lp40
F39.943812204202899
aF1
aF1
aa(lp41
F1
aF39.943812204202899
aF1
aa(lp42
F1
aF1
aF39.943812204202899
aasg22
F0.26922220660548202
ssa(dp43
g3
(lp44
F0.34825057582987101
aF0.326819990200303
aF0.32492943396982599
asg5
(dp45
g7
F0.94048924230446596
ssg8
(dp46
g7
F0.31545071165019201
ssg10
(lp47
F0.45919606630091597
aF0.46634390565624301
aF0.074460028042841797
asg12
(dp48
g14
F77.042768107754497
sg15
F0.27871026522363501
sg16
F78.042768107754497
sg17
(lp49
(lp50
F33.684602308608
aF1
aF1
aa(lp51
F1
aF33.684602308608
aF1
aa(lp52
F1
aF1
aF33.684602308608
aasg22
F0.69013022000144697
ssa(dp53
g3
(lp54
F0.71280762447999402
aF0.15950688967642801
aF0.127685485843578
asg5
(dp55
g7
F0.083503334505949198
ssg8
(dp56
g7
F0.019430433994275499
ssg10
(lp57
F0.35602380971411601
aF0.049765201106507
aF0.59421098917937698
asg12
(dp58
g14
F90.963365253027206
sg15
F0.24670649241714299
sg16
F91.963365253027206
sg17
(lp59
(lp60
F44.744137678760197
aF1
aF1
aa(lp61
F1
aF44.744137678760197
aF1
aa(lp62
F1
aF1
aF44.744137678760197
aasg22
F0.56450531073030996
ssa(dp63
g3
(lp64
F0.25897563633826698
aF0.49219704906108402
aF0.248827314600649
asg5
(dp65
g7
F0.32534199703251898
ssg8
(dp66
g7
F0.60655062503297796
ssg10
(lp67
F0.53492731101538804
aF0.434646570289076
aF0.0304261186955356
asg12
(dp68
g14
F84.333409737048598
sg15
F0.0293288600194501
sg16
F85.333409737048598
sg17
(lp69
(lp70
F98.773817031113097
aF1
aF1
aa(lp71
F1
aF98.773817031113097
aF1
aa(lp72
F1
aF1
aF98.773817031113097
aasg22
F0.73297276848054005
ssa(dp73
g3
(lp74
F0.042593623717919298
aF0.60025126055971201
aF0.35715511572236902
asg5
(dp75
g7
F0.19876994464779299
ssg8
(dp76
g7
F0.052616311949095697
ssg10
(lp77
F0.19284361629209701
aF0.16648574947057801
aF0.64067063423732495
asg12
(dp78
g14
F43.308550063959402
sg15
F0.57189555501914602
sg16
F44.308550063959402
sg17
(lp79
(lp80
F84.052554920031795
aF1
aF1
aa(lp81
F1
aF84.052554920031795
aF1
aa(lp82
F1
aF1
aF84.052554920031795
aasg22
F0.948528734126594
ssa(dp83
g3
(lp84
F0.084699985891244597
aF0.63613822522708696
aF0.27916178888166898
asg5
(dp85
g7
F0.91966684361978002
ssg8
(dp86
g7
F0.211665136530064
ssg10
(lp87
F0.22818753127001601
aF0.174902288619149
aF0.59691018011083496
asg12
(dp88
g14
F10.8735888500055
sg15
F0.68850643712910797
sg16
F11.8735888500055
sg17
(lp89
(lp90
F63.944454847408501
aF1
aF1
aa(lp91
F1
aF63.944454847408501
aF1
aa(lp92
F1
aF1
aF63.944454847408501
aasg22
F0.47048228980565898
ssa(dp93
g3
(lp94
F0.47340037508518901
aF0.51473181457556905
aF0.011867810339241501
asg5
(dp95
g7
F0.59420427017845201
ssg8
(dp96
g7
F0.61725470336270505
ssg10
(lp97
F0.19378838365255599
aF0.66869176667697905
aF0.13751984967046499
asg12
(dp98
g14
F98.009409171512203
sg15
F0.53086197803961099
sg16
F99.009409171512203
sg17
(lp99
(lp100
F8.9107321100063892
aF1
aF1
aa(lp101
F1
aF8.9107321100063892
aF1
aa(lp102
F1
aF1
aF8.9107321100063892
aasg22
F0.54630888861021998
ssa(dp103
g3
(lp104
F0.41612644212627298
aF0.45261651389617702
aF0.13125704397755
asg5
(dp105
g7
F0.64493483103695304
ssg8
(dp106
g7
F0.53458428171754302
ssg10
(lp107
F0.46094221512855799
aF0.31272061192842399
aF0.226337172943018
asg12
(dp108
g14
F26.7476299948652
sg15
F0.71685892490495495
sg16
F27.7476299948652
sg17
(lp109
(lp110
F15.058445615063899
aF1
aF1
aa(lp111
F1
aF15.058445615063899
aF1
aa(lp112
F1
aF1
aF15.058445615063899
aasg22
F0.79317714882607104
ssa(dp113
g3
(lp114
F0.31255608569943799
aF0.49629042180868799
aF0.19115349249187399
asg5
(dp115
g7
F0.78094984677329204
ssg8
(dp116
g7
F0.67404309922479999
ssg10
(lp117
F0.30762320599485199
aF0.38006824019652802
aF0.31230855380861899
asg12
(dp118
g14
F21.038234037938398
sg15
F0.99428421514225196
sg16
F22.038234037938398
sg17
(lp119
(lp120
F13.8763282441857
aF1
aF1
aa(lp121
F1
aF13.8763282441857
aF1
aa(lp122
F1
aF1
aF13.8763282441857
aasg22
F0.35046232941152999
ssa(dp123
g3
(lp124
F0.43826355172337
aF0.23599426746711
aF0.32574218080952
asg5
(dp125
g7
F0.11980986649519799
ssg8
(dp126
g7
F0.31863271596725101
ssg10
(lp127
F0.21913907892596601
aF0.26054324336055801
aF0.52031767771347603
asg12
(dp128
g14
F23.130752181231401
sg15
F0.84187979835260196
sg16
F24.130752181231401
sg17
(lp129
(lp130
F83.746704814688101
aF1
aF1
aa(lp131
F1
aF83.746704814688101
aF1
aa(lp132
F1
aF1
aF83.746704814688101
aasg22
F0.40096806147310399
ssa(dp133
g3
(lp134
F0.27986594304998202
aF0.44561688644472403
aF0.27451717050529401
asg5
(dp135
g7
F0.18532394306093899
ssg8
(dp136
g7
F0.99684511131839804
ssg10
(lp137
F0.31412255001007799
aF0.0418822692879438
aF0.64399518070197803
asg12
(dp138
g14
F88.989326356114603
sg15
F0.10999208330700599
sg16
F89.989326356114603
sg17
(lp139
(lp140
F36.2956751291199
aF1
aF1
aa(lp141
F1
aF36.2956751291199
aF1
aa(lp142
F1
aF1
aF36.2956751291199
aasg22
F0.60290320735715797
ssa(dp143
g3
(lp144
F0.099666093675179604
aF0.0068105186878834999
aF0.89352338763693695
asg5
(dp145
g7
F0.85417548176483205
ssg8
(dp146
g7
F0.78374543832614996
ssg10
(lp147
F0.81754154818104396
aF0.072555807607888004
aF0.109902644211068
asg12
(dp148
g14
F56.4422561283465
sg15
F0.422728333924897
sg16
F57.4422561283465
sg17
(lp149
(lp150
F25.188418901691499
aF1
aF1
aa(lp151
F1
aF25.188418901691499
aF1
aa(lp152
F1
aF1
aF25.188418901691499
aasg22
F0.31325175610021699
ssa(dp153
g3
(lp154
F0.32726533876076802
aF0.48077688595877799
aF0.19195777528045399
asg5
(dp155
g7
F0.432880144747323
ssg8
(dp156
g7
F0.33593569680932001
ssg10
(lp157
F0.40305134039401602
aF0.172908566160658
aF0.42404009344532601
asg12
(dp158
g14
F31.734172600527899
sg15
F0.47165709360851898
sg16
F32.734172600527899
sg17
(lp159
(lp160
F89.927440644348195
aF1
aF1
aa(lp161
F1
aF89.927440644348195
aF1
aa(lp162
F1
aF1
aF89.927440644348195
aasg22
F0.26028621123929002
ssa(dp163
g3
(lp164
F0.704074815623004
aF0.27107691085088098
aF0.024848273526115201
asg5
(dp165
g7
F0.34384286890388499
ssg8
(dp166
g7
F0.92132359275652598
ssg10
(lp167
F0.33073562183944799
aF0.458347736052378
aF0.21091664210817301
asg12
(dp168
g14
F52.925897835300901
sg15
F0.129554920881055
sg16
F53.925897835300901
sg17
(lp169
(lp170
F14.1031314180597
aF1
aF1
aa(lp171
F1
aF14.1031314180597
aF1
aa(lp172
F1
aF1
aF14.1031314180597
aasg22
F0.088103568702354099
ssa.