(lp1
(dp2
S'mw_weights'
p3
(lp4
F0.59270515075139896
aF0.28683188680020599
aF0.12046296244839499
asS'signaller_args'
p5
(dp6
S'share_weight'
p7
F0.778757984100375
ssS'responder_args'
p8
(dp9
g7
F0.18666727395786401
ssS'women_weights'
p10
(lp11
F0.401429472543683
aF0.30934249050391899
aF0.28922803695239802
asS'game_args'
p12
(dp13
S'referral_cost'
p14
F55.962938657135702
sS'women_share_prob'
p15
F0.068394131970126198
sS'baby_payoff'
p16
F56.962938657135702
sS'type_weights'
p17
(lp18
(lp19
F25.558131505210401
aF1
aF1
aa(lp20
F1
aF25.558131505210401
aF1
aa(lp21
F1
aF1
aF25.558131505210401
aasS'mw_share_prob'
p22
F0.59209958052437295
ssa(dp23
g3
(lp24
F0.51121205116625601
aF0.457267002219375
aF0.031520946614369098
asg5
(dp25
g7
F0.687048621802824
ssg8
(dp26
g7
F0.52004073934978801
ssg10
(lp27
F0.47266650792179699
aF0.468303867909452
aF0.0590296241687513
asg12
(dp28
g14
F62.8647453553071
sg15
F0.054910008799051897
sg16
F63.8647453553071
sg17
(lp29
(lp30
F42.324002305108998
aF1
aF1
aa(lp31
F1
aF42.324002305108998
aF1
aa(lp32
F1
aF1
aF42.324002305108998
aasg22
F0.84079668383230499
ssa(dp33
g3
(lp34
F0.22837499982102999
aF0.68488755617213304
aF0.086737444006837805
asg5
(dp35
g7
F0.625951766457292
ssg8
(dp36
g7
F0.160619317786768
ssg10
(lp37
F0.32269179633959999
aF0.080668028566262998
aF0.59664017509413703
asg12
(dp38
g14
F18.175378197890499
sg15
F0.54460409675899402
sg16
F19.175378197890499
sg17
(lp39
(lp40
F71.698170853369305
aF1
aF1
aa(lp41
F1
aF71.698170853369305
aF1
aa(lp42
F1
aF1
aF71.698170853369305
aasg22
F0.51807125035615198
ssa(dp43
g3
(lp44
F0.15108156921694499
aF0.39027310351490202
aF0.45864532726815299
asg5
(dp45
g7
F0.57107564883423001
ssg8
(dp46
g7
F0.95727272957505205
ssg10
(lp47
F0.243034199529578
aF0.32577772980102898
aF0.43118807066939302
asg12
(dp48
g14
F81.359796026273301
sg15
F0.31361893922672601
sg16
F82.359796026273301
sg17
(lp49
(lp50
F15.340562648338601
aF1
aF1
aa(lp51
F1
aF15.340562648338601
aF1
aa(lp52
F1
aF1
aF15.340562648338601
aasg22
F0.81679609091894201
ssa(dp53
g3
(lp54
F0.29428070290746999
aF0.36322928588748499
aF0.34249001120504402
asg5
(dp55
g7
F0.037450455416692403
ssg8
(dp56
g7
F0.21958504895796099
ssg10
(lp57
F0.35169150360534301
aF0.235819291365194
aF0.41248920502946301
asg12
(dp58
g14
F47.450018764144303
sg15
F0.80444338620989597
sg16
F48.450018764144303
sg17
(lp59
(lp60
F10.0679567000007
aF1
aF1
aa(lp61
F1
aF10.0679567000007
aF1
aa(lp62
F1
aF1
aF10.0679567000007
aasg22
F0.36101160341524502
ssa(dp63
g3
(lp64
F0.44395946880502801
aF0.016819396593791301
aF0.53922113460118104
asg5
(dp65
g7
F0.87968323623237699
ssg8
(dp66
g7
F0.497520190892974
ssg10
(lp67
F0.065879276919485197
aF0.51606141205899103
aF0.41805931102152399
asg12
(dp68
g14
F91.056372163814203
sg15
F0.088534983104327697
sg16
F92.056372163814203
sg17
(lp69
(lp70
F82.742441694578602
aF1
aF1
aa(lp71
F1
aF82.742441694578602
aF1
aa(lp72
F1
aF1
aF82.742441694578602
aasg22
F0.56946714305609902
ssa(dp73
g3
(lp74
F0.41246390722034898
aF0.28441346609596102
aF0.30312262668369
asg5
(dp75
g7
F0.26554910379927599
ssg8
(dp76
g7
F0.95960280280851296
ssg10
(lp77
F0.41684635158371303
aF0.41584851413624302
aF0.16730513428004401
asg12
(dp78
g14
F5.99241703865082
sg15
F0.34961162616149499
sg16
F6.99241703865082
sg17
(lp79
(lp80
F63.120053829827199
aF1
aF1
aa(lp81
F1
aF63.120053829827199
aF1
aa(lp82
F1
aF1
aF63.120053829827199
aasg22
F0.53913402874139105
ssa(dp83
g3
(lp84
F0.27396747526533399
aF0.20441952228282601
aF0.52161300245183995
asg5
(dp85
g7
F0.37455771106993802
ssg8
(dp86
g7
F0.75721141741436404
ssg10
(lp87
F0.18033986913967701
aF0.0071062812935003801
aF0.81255384956682297
asg12
(dp88
g14
F37.022527964619499
sg15
F0.87885466945066604
sg16
F38.022527964619499
sg17
(lp89
(lp90
F59.481653126816298
aF1
aF1
aa(lp91
F1
aF59.481653126816298
aF1
aa(lp92
F1
aF1
aF59.481653126816298
aasg22
F0.50938869880221305
ssa(dp93
g3
(lp94
F0.45253885540586403
aF0.12632670147167499
aF0.42113444312246101
asg5
(dp95
g7
F0.44537462632695701
ssg8
(dp96
g7
F0.45833306077809499
ssg10
(lp97
F0.42672907466201598
aF0.080955629047597802
aF0.49231529629038601
asg12
(dp98
g14
F50.106355209274298
sg15
F0.51684341290791103
sg16
F51.106355209274298
sg17
(lp99
(lp100
F36.650696007415803
aF1
aF1
aa(lp101
F1
aF36.650696007415803
aF1
aa(lp102
F1
aF1
aF36.650696007415803
aasg22
F0.76744216083956396
ssa(dp103
g3
(lp104
F0.064183523455608099
aF0.159879482672423
aF0.77593699387196902
asg5
(dp105
g7
F0.0222311383113265
ssg8
(dp106
g7
F0.37692236670351098
ssg10
(lp107
F0.52743881561250605
aF0.015291991907670501
aF0.457269192479824
asg12
(dp108
g14
F12.5385717133772
sg15
F0.84933107040938904
sg16
F13.5385717133772
sg17
(lp109
(lp110
F1.4991698063976
aF1
aF1
aa(lp111
F1
aF1.4991698063976
aF1
aa(lp112
F1
aF1
aF1.4991698063976
aasg22
F0.82776867360633299
ssa(dp113
g3
(lp114
F0.17728764884137699
aF0.31288405926631702
aF0.50982829189230505
asg5
(dp115
g7
F0.460040714099887
ssg8
(dp116
g7
F0.87820049158297497
ssg10
(lp117
F0.77365301335240499
aF0.090612779482683106
aF0.135734207164912
asg12
(dp118
g14
F30.0044732114075
sg15
F0.554354149382561
sg16
F31.0044732114075
sg17
(lp119
(lp120
F12.4618468457316
aF1
aF1
aa(lp121
F1
aF12.4618468457316
aF1
aa(lp122
F1
aF1
aF12.4618468457316
aasg22
F0.20667713535309301
ssa(dp123
g3
(lp124
F0.234955952602556
aF0.46076942930439801
aF0.30427461809304601
asg5
(dp125
g7
F0.23511734455591099
ssg8
(dp126
g7
F0.31054656177817402
ssg10
(lp127
F0.00122846294128888
aF0.62584216852787899
aF0.37292936853083197
asg12
(dp128
g14
F80.314270974114294
sg15
F0.90444368861964897
sg16
F81.314270974114294
sg17
(lp129
(lp130
F4.0664289482726401
aF1
aF1
aa(lp131
F1
aF4.0664289482726401
aF1
aa(lp132
F1
aF1
aF4.0664289482726401
aasg22
F0.19947036687342901
ssa(dp133
g3
(lp134
F0.37812226563910301
aF0.196030902967429
aF0.42584683139346802
asg5
(dp135
g7
F0.59823148731840803
ssg8
(dp136
g7
F0.69873954981856501
ssg10
(lp137
F0.36517500521569002
aF0.23458921085752099
aF0.40023578392678999
asg12
(dp138
g14
F64.463764409704694
sg15
F0.21658161130966599
sg16
F65.463764409704694
sg17
(lp139
(lp140
F98.559153022366999
aF1
aF1
aa(lp141
F1
aF98.559153022366999
aF1
aa(lp142
F1
aF1
aF98.559153022366999
aasg22
F0.87444533521891599
ssa(dp143
g3
(lp144
F0.35745259364445398
aF0.35726151477957802
aF0.28528589157596901
asg5
(dp145
g7
F0.80058667851204501
ssg8
(dp146
g7
F0.17380556418618701
ssg10
(lp147
F0.36214721889901003
aF0.165541770059039
aF0.472311011041951
asg12
(dp148
g14
F58.655751880641098
sg15
F0.85181778033555
sg16
F59.655751880641098
sg17
(lp149
(lp150
F21.2060006830242
aF1
aF1
aa(lp151
F1
aF21.2060006830242
aF1
aa(lp152
F1
aF1
aF21.2060006830242
aasg22
F0.112041286478634
ssa(dp153
g3
(lp154
F0.169732831188318
aF0.82929069963785595
aF0.00097646917382614195
asg5
(dp155
g7
F0.577926123588695
ssg8
(dp156
g7
F0.11879918708640599
ssg10
(lp157
F0.38489585834858098
aF0.32372434415538798
aF0.29137979749603199
asg12
(dp158
g14
F76.405358838484204
sg15
F0.92965645959426202
sg16
F77.405358838484204
sg17
(lp159
(lp160
F57.276040295892798
aF1
aF1
aa(lp161
F1
aF57.276040295892798
aF1
aa(lp162
F1
aF1
aF57.276040295892798
aasg22
F0.95613224037806499
ssa(dp163
g3
(lp164
F0.00821073837617327
aF0.289755244729548
aF0.70203401689427902
asg5
(dp165
g7
F0.79906821772456205
ssg8
(dp166
g7
F0.53913476961723095
ssg10
(lp167
F0.253982867609436
aF0.22891787162527
aF0.517099260765294
asg12
(dp168
g14
F0
sg15
F0.43430832602200098
sg16
F1
sg17
(lp169
(lp170
F78.968266562369294
aF1
aF1
aa(lp171
F1
aF78.968266562369294
aF1
aa(lp172
F1
aF1
aF78.968266562369294
aasg22
F0.14504260270507099
ssa.