(lp1
(dp2
S'mw_weights'
p3
(lp4
F0.18579433684785199
aF0.55168003679029698
aF0.26252562636185101
asS'signaller_args'
p5
(dp6
S'share_weight'
p7
F0.54682637538411605
ssS'responder_args'
p8
(dp9
g7
F0.58014419878716605
ssS'women_weights'
p10
(lp11
F0.28838941317101202
aF0.357364856024315
aF0.35424573080467398
asS'game_args'
p12
(dp13
S'referral_cost'
p14
F13.1972731628706
sS'women_share_prob'
p15
F0.046701370471273498
sS'baby_payoff'
p16
F14.1972731628706
sS'type_weights'
p17
(lp18
(lp19
F17.998615521540199
aF1
aF1
aa(lp20
F1
aF17.998615521540199
aF1
aa(lp21
F1
aF1
aF17.998615521540199
aasS'mw_share_prob'
p22
F0.45961627693148299
ssa(dp23
g3
(lp24
F0.079093462613596205
aF0.70415484008542295
aF0.21675169730098101
asg5
(dp25
g7
F0.69717947324505103
ssg8
(dp26
g7
F0.69190017572022
ssg10
(lp27
F0.39234792062443202
aF0.28655273248257801
aF0.32109934689298902
asg12
(dp28
g14
F77.745007054337194
sg15
F0.76954329021566104
sg16
F78.745007054337194
sg17
(lp29
(lp30
F45.433284913110001
aF1
aF1
aa(lp31
F1
aF45.433284913110001
aF1
aa(lp32
F1
aF1
aF45.433284913110001
aasg22
F0.93186927345232096
ssa(dp33
g3
(lp34
F0.43053280345823403
aF0.28295547786888398
aF0.286511718672881
asg5
(dp35
g7
F0.352725871327566
ssg8
(dp36
g7
F0.60312298527103803
ssg10
(lp37
F0.33543269649575602
aF0.32050912166510198
aF0.344058181839142
asg12
(dp38
g14
F100
sg15
F0.31687666149169702
sg16
F101
sg17
(lp39
(lp40
F64.764243558211206
aF1
aF1
aa(lp41
F1
aF64.764243558211206
aF1
aa(lp42
F1
aF1
aF64.764243558211206
aasg22
F0.300941907887463
ssa(dp43
g3
(lp44
F0.25950530692337198
aF0.18541887148956601
aF0.55507582158706303
asg5
(dp45
g7
F0.29917759519943499
ssg8
(dp46
g7
F0.149458140886854
ssg10
(lp47
F0.29183804574772099
aF0.257852579971733
aF0.45030937428054602
asg12
(dp48
g14
F51.506008700388101
sg15
F0.86701367444475197
sg16
F52.506008700388101
sg17
(lp49
(lp50
F50.016444266541299
aF1
aF1
aa(lp51
F1
aF50.016444266541299
aF1
aa(lp52
F1
aF1
aF50.016444266541299
aasg22
F0.23219887862098401
ssa(dp53
g3
(lp54
F0.345353038398863
aF0.53127459708278202
aF0.123372364518356
asg5
(dp55
g7
F0.90445923728810196
ssg8
(dp56
g7
F0.26166297861258497
ssg10
(lp57
F0.48643095161990901
aF0.204971020266554
aF0.30859802811353698
asg12
(dp58
g14
F52.123384683308799
sg15
F0.64557155020651402
sg16
F53.123384683308799
sg17
(lp59
(lp60
F50.640068186124601
aF1
aF1
aa(lp61
F1
aF50.640068186124601
aF1
aa(lp62
F1
aF1
aF50.640068186124601
aasg22
F0.74963484885345699
ssa(dp63
g3
(lp64
F0.28088650984974001
aF0.21473612441576101
aF0.50437736573449898
asg5
(dp65
g7
F0.30696590783132699
ssg8
(dp66
g7
F0.462251687356038
ssg10
(lp67
F0.48199885087753702
aF0.35646453141558598
aF0.16153661770687799
asg12
(dp68
g14
F99.268044257864602
sg15
F0.0117563067103038
sg16
F100.2680442578646
sg17
(lp69
(lp70
F52.841722380356103
aF1
aF1
aa(lp71
F1
aF52.841722380356103
aF1
aa(lp72
F1
aF1
aF52.841722380356103
aasg22
F0.068082639514468593
ssa(dp73
g3
(lp74
F0.51185112637596097
aF0.33515288513701802
aF0.15299598848702101
asg5
(dp75
g7
F0.52719228924892403
ssg8
(dp76
g7
F0.86230933911283503
ssg10
(lp77
F0.166648069599524
aF0.18568699304528599
aF0.64766493735519104
asg12
(dp78
g14
F11.015018728508
sg15
F0.30803923531551802
sg16
F12.015018728508
sg17
(lp79
(lp80
F97.036619231488601
aF1
aF1
aa(lp81
F1
aF97.036619231488601
aF1
aa(lp82
F1
aF1
aF97.036619231488601
aasg22
F0.48783360667876002
ssa(dp83
g3
(lp84
F0.40453252351350899
aF0.23868072364766699
aF0.356786752838823
asg5
(dp85
g7
F0.158674185493728
ssg8
(dp86
g7
F0.467826839846675
ssg10
(lp87
F0.54222992498853595
aF0.046961730684842398
aF0.410808344326622
asg12
(dp88
g14
F96.729524912470893
sg15
F0.41582324369170198
sg16
F97.729524912470893
sg17
(lp89
(lp90
F13.600148646020999
aF1
aF1
aa(lp91
F1
aF13.600148646020999
aF1
aa(lp92
F1
aF1
aF13.600148646020999
aasg22
F0.46532765889365701
ssa(dp93
g3
(lp94
F0.42008025119340398
aF0.240274921104669
aF0.339644827701927
asg5
(dp95
g7
F0.97228368877607896
ssg8
(dp96
g7
F0.83185816403769397
ssg10
(lp97
F0.20331808473808699
aF0.47381078636539897
aF0.32287112889651498
asg12
(dp98
g14
F69.120865782118102
sg15
F0.0024261553789256098
sg16
F70.120865782118102
sg17
(lp99
(lp100
F22.272291736456499
aF1
aF1
aa(lp101
F1
aF22.272291736456499
aF1
aa(lp102
F1
aF1
aF22.272291736456499
aasg22
F0.24240826059423901
ssa(dp103
g3
(lp104
F0.34021077716875098
aF0.65186960658299098
aF0.0079196162482574502
asg5
(dp105
g7
F0.39824267478659697
ssg8
(dp106
g7
F0.23936793910281301
ssg10
(lp107
F0.0060122507059187603
aF0.44793935386449102
aF0.54604839542959005
asg12
(dp108
g14
F69.565674203703495
sg15
F0.145512310528429
sg16
F70.565674203703495
sg17
(lp109
(lp110
F72.544870982470499
aF1
aF1
aa(lp111
F1
aF72.544870982470499
aF1
aa(lp112
F1
aF1
aF72.544870982470499
aasg22
F0.45207371802534901
ssa(dp113
g3
(lp114
F0.45327268274212101
aF0.0964816801030665
aF0.45024563715481303
asg5
(dp115
g7
F0.46379549919976898
ssg8
(dp116
g7
F0.946936156318407
ssg10
(lp117
F0.060180942195941202
aF0.52891935410787105
aF0.410899703696187
asg12
(dp118
g14
F73.108115546139501
sg15
F0.25389455008204098
sg16
F74.108115546139501
sg17
(lp119
(lp120
F67.963175684232795
aF1
aF1
aa(lp121
F1
aF67.963175684232795
aF1
aa(lp122
F1
aF1
aF67.963175684232795
aasg22
F0.104140596470679
ssa(dp123
g3
(lp124
F0.35619334034675798
aF0.41722429647009102
aF0.226582363183151
asg5
(dp125
g7
F0.58057781388168195
ssg8
(dp126
g7
F0.47146359225094803
ssg10
(lp127
F0.52511714389656905
aF0.24634547172872001
aF0.22853738437471099
asg12
(dp128
g14
F78.596356308832597
sg15
F0.58379155883332701
sg16
F79.596356308832597
sg17
(lp129
(lp130
F44.995126556531702
aF1
aF1
aa(lp131
F1
aF44.995126556531702
aF1
aa(lp132
F1
aF1
aF44.995126556531702
aasg22
F0.92898608070739996
ssa(dp133
g3
(lp134
F0.340191181928167
aF0.39408031764868501
aF0.265728500423148
asg5
(dp135
g7
F0.24220869372715201
ssg8
(dp136
g7
F0.090922288294532305
ssg10
(lp137
F0.437574375901228
aF0.18977371823411601
aF0.37265190586465602
asg12
(dp138
g14
F85.333930632975097
sg15
F0.60065133497468204
sg16
F86.333930632975097
sg17
(lp139
(lp140
F38.712618730268296
aF1
aF1
aa(lp141
F1
aF38.712618730268296
aF1
aa(lp142
F1
aF1
aF38.712618730268296
aasg22
F0.39330337541236099
ssa(dp143
g3
(lp144
F0.26163888060609902
aF0.46231083429409398
aF0.276050285099807
asg5
(dp145
g7
F0.53480299801856701
ssg8
(dp146
g7
F0.89650914111582103
ssg10
(lp147
F0.27169452940897199
aF0.0584402128126301
aF0.669865257778398
asg12
(dp148
g14
F56.757884597473797
sg15
F0.065270815764670295
sg16
F57.757884597473797
sg17
(lp149
(lp150
F32.399017313728002
aF1
aF1
aa(lp151
F1
aF32.399017313728002
aF1
aa(lp152
F1
aF1
aF32.399017313728002
aasg22
F0.55033310923725398
ssa(dp153
g3
(lp154
F0.356055863522801
aF0.10718460265539401
aF0.53675953382180497
asg5
(dp155
g7
F0.20438570440572201
ssg8
(dp156
g7
F0.15164099157438601
ssg10
(lp157
F0.38672079356769401
aF0.40804270990029301
aF0.20523649653201401
asg12
(dp158
g14
F88.281946022000497
sg15
F0.048941445771488401
sg16
F89.281946022000497
sg17
(lp159
(lp160
F61.123734945405602
aF1
aF1
aa(lp161
F1
aF61.123734945405602
aF1
aa(lp162
F1
aF1
aF61.123734945405602
aasg22
F0.44650650571275002
ssa(dp163
g3
(lp164
F0.25670429939064399
aF0.25938581552036
aF0.48390988508899602
asg5
(dp165
g7
F0.30312716421089098
ssg8
(dp166
g7
F0.107061123894528
ssg10
(lp167
F0.15042516818839699
aF0.40351648331828699
aF0.44605834849331599
asg12
(dp168
g14
F46.977467384456602
sg15
F0.43931383025075799
sg16
F47.977467384456602
sg17
(lp169
(lp170
F51.593994939261897
aF1
aF1
aa(lp171
F1
aF51.593994939261897
aF1
aa(lp172
F1
aF1
aF51.593994939261897
aasg22
F0.52720826607139304
ssa.