(lp1
(dp2
S'mw_weights'
p3
(lp4
F0.45408038378666699
aF0.35014469284509397
aF0.19577492336824001
asS'signaller_args'
p5
(dp6
S'share_weight'
p7
F0.19269047684094401
ssS'responder_args'
p8
(dp9
g7
F0.30663612377364202
ssS'women_weights'
p10
(lp11
F0.054920662286569902
aF0.46235326109713498
aF0.48272607661629502
asS'game_args'
p12
(dp13
S'referral_cost'
p14
F20.600455609901001
sS'women_share_prob'
p15
F0.29684890419070098
sS'baby_payoff'
p16
F21.600455609901001
sS'type_weights'
p17
(lp18
(lp19
F90.832235397222902
aF1
aF1
aa(lp20
F1
aF90.832235397222902
aF1
aa(lp21
F1
aF1
aF90.832235397222902
aasS'mw_share_prob'
p22
F0.77539351761923203
ssa(dp23
g3
(lp24
F0.30752466507325599
aF0.25031090941741801
aF0.442164425509326
asg5
(dp25
g7
F0.48977100777847199
ssg8
(dp26
g7
F0.63056150835880498
ssg10
(lp27
F0.38435395747522699
aF0.45611107056080702
aF0.15953497196396599
asg12
(dp28
g14
F90.763500268178305
sg15
F0.059665733258589197
sg16
F91.763500268178305
sg17
(lp29
(lp30
F2.6930352028385101
aF1
aF1
aa(lp31
F1
aF2.6930352028385101
aF1
aa(lp32
F1
aF1
aF2.6930352028385101
aasg22
F0.4751046193199
ssa(dp33
g3
(lp34
F0.61979243192063105
aF0.023239342849446201
aF0.356968225229923
asg5
(dp35
g7
F0.48043110936007
ssg8
(dp36
g7
F0.41751933458901502
ssg10
(lp37
F0.27675378302857101
aF0.16803130335532099
aF0.55521491361610797
asg12
(dp38
g14
F67.527194302229702
sg15
F0.61097653931938101
sg16
F68.527194302229702
sg17
(lp39
(lp40
F99.535509079698201
aF1
aF1
aa(lp41
F1
aF99.535509079698201
aF1
aa(lp42
F1
aF1
aF99.535509079698201
aasg22
F0.19012047311873201
ssa(dp43
g3
(lp44
F0.40065718453120902
aF0.27241624766640798
aF0.32692656780238299
asg5
(dp45
g7
F0.40587417431175699
ssg8
(dp46
g7
F0.39011161940929001
ssg10
(lp47
F0.39490874360018002
aF0.15877167208246301
aF0.44631958431735702
asg12
(dp48
g14
F88.783904457860501
sg15
F0.24173539516225001
sg16
F89.783904457860501
sg17
(lp49
(lp50
F26.0877245696202
aF1
aF1
aa(lp51
F1
aF26.0877245696202
aF1
aa(lp52
F1
aF1
aF26.0877245696202
aasg22
F0.68834244177909598
ssa(dp53
g3
(lp54
F0.30310445127763203
aF0.35119169014988699
aF0.34570385857248098
asg5
(dp55
g7
F0.77685289540328095
ssg8
(dp56
g7
F0.177926778020919
ssg10
(lp57
F0.34904533480529898
aF0.28520985054008102
aF0.36574481465462
asg12
(dp58
g14
F86.838485569639403
sg15
F0.73856282315857202
sg16
F87.838485569639403
sg17
(lp59
(lp60
F18.577299528976699
aF1
aF1
aa(lp61
F1
aF18.577299528976699
aF1
aa(lp62
F1
aF1
aF18.577299528976699
aasg22
F0.71382378885929898
ssa(dp63
g3
(lp64
F0.206189016961736
aF0.324166754236626
aF0.46964422880163798
asg5
(dp65
g7
F0.11663813361316
ssg8
(dp66
g7
F0.72162245002109604
ssg10
(lp67
F0.63209096523754804
aF0.16911762118935
aF0.19879141357310201
asg12
(dp68
g14
F29.8350069383145
sg15
F0.015093977727228799
sg16
F30.8350069383145
sg17
(lp69
(lp70
F40.947537474882097
aF1
aF1
aa(lp71
F1
aF40.947537474882097
aF1
aa(lp72
F1
aF1
aF40.947537474882097
aasg22
F0.42322315784287601
ssa(dp73
g3
(lp74
F0.149883789035309
aF0.24656726924424699
aF0.60354894172044404
asg5
(dp75
g7
F0.0085392981243785498
ssg8
(dp76
g7
F0.642523142297869
ssg10
(lp77
F0.44667992018917602
aF0.076546975835841094
aF0.47677310397498301
asg12
(dp78
g14
F58.955916518646397
sg15
F0.69060571935784498
sg16
F59.955916518646397
sg17
(lp79
(lp80
F67.828656914841403
aF1
aF1
aa(lp81
F1
aF67.828656914841403
aF1
aa(lp82
F1
aF1
aF67.828656914841403
aasg22
F0.904059861236019
ssa(dp83
g3
(lp84
F0.36501450542006603
aF0.0137302467166676
aF0.62125524786326702
asg5
(dp85
g7
F0.87273121990845504
ssg8
(dp86
g7
F0.65372354085673601
ssg10
(lp87
F0.58705294230399596
aF0.32351305272168401
aF0.089434004974320594
asg12
(dp88
g14
F71.422093398866394
sg15
F0.22082833074033301
sg16
F72.422093398866394
sg17
(lp89
(lp90
F17.095337823116399
aF1
aF1
aa(lp91
F1
aF17.095337823116399
aF1
aa(lp92
F1
aF1
aF17.095337823116399
aasg22
F0.64446979077358302
ssa(dp93
g3
(lp94
F0.61818899812130601
aF0.0051045504008769898
aF0.37670645147781701
asg5
(dp95
g7
F0.427964904539404
ssg8
(dp96
g7
F0.58278419575712204
ssg10
(lp97
F0.089518031135214005
aF0.33308364000632101
aF0.57739832885846498
asg12
(dp98
g14
F85.613212967777599
sg15
F0.15900790441839499
sg16
F86.613212967777599
sg17
(lp99
(lp100
F84.739463008584096
aF1
aF1
aa(lp101
F1
aF84.739463008584096
aF1
aa(lp102
F1
aF1
aF84.739463008584096
aasg22
F0.28238082195282899
ssa(dp103
g3
(lp104
F0.37852049558492701
aF0.27948899927610199
aF0.341990505138972
asg5
(dp105
g7
F0.0056263365678023503
ssg8
(dp106
g7
F0.16530531800701301
ssg10
(lp107
F0.157470799934846
aF0.167133435149251
aF0.67539576491590303
asg12
(dp108
g14
F58.183784712126098
sg15
F0.13555817912798401
sg16
F59.183784712126098
sg17
(lp109
(lp110
F33.184540686415602
aF1
aF1
aa(lp111
F1
aF33.184540686415602
aF1
aa(lp112
F1
aF1
aF33.184540686415602
aasg22
F0.032858606371446497
ssa(dp113
g3
(lp114
F0.31331442403585602
aF0.29402855485462898
aF0.392657021109515
asg5
(dp115
g7
F0.67456107743666505
ssg8
(dp116
g7
F0.230782473247964
ssg10
(lp117
F0.27120722935228297
aF0.32710977053187201
aF0.40168300011584601
asg12
(dp118
g14
F93.943425409908301
sg15
F0.47682478180795401
sg16
F94.943425409908301
sg17
(lp119
(lp120
F74.126523926168403
aF1
aF1
aa(lp121
F1
aF74.126523926168403
aF1
aa(lp122
F1
aF1
aF74.126523926168403
aasg22
F0.76426730588485903
ssa(dp123
g3
(lp124
F0.14304633197765501
aF0.73517654671452404
aF0.12177712130781999
asg5
(dp125
g7
F0.27582794803369298
ssg8
(dp126
g7
F0.87221672259678595
ssg10
(lp127
F0.14068136132563999
aF0.76353348069420501
aF0.095785157980155397
asg12
(dp128
g14
F54.732296917657798
sg15
F0.27309447179315599
sg16
F55.732296917657798
sg17
(lp129
(lp130
F70.225194428141904
aF1
aF1
aa(lp131
F1
aF70.225194428141904
aF1
aa(lp132
F1
aF1
aF70.225194428141904
aasg22
F0.54035181425628298
ssa(dp133
g3
(lp134
F0.019383252857680802
aF0.44659424402905401
aF0.53402250311326505
asg5
(dp135
g7
F0.39380977226072
ssg8
(dp136
g7
F0.43563621455861701
ssg10
(lp137
F0.30730123281926602
aF0.073892962303972395
aF0.61880580487676196
asg12
(dp138
g14
F45.9171918357263
sg15
F0.587146697122371
sg16
F46.9171918357263
sg17
(lp139
(lp140
F93.559605511732798
aF1
aF1
aa(lp141
F1
aF93.559605511732798
aF1
aa(lp142
F1
aF1
aF93.559605511732798
aasg22
F0.17130268178763799
ssa(dp143
g3
(lp144
F0.32966795589188702
aF0.26821627898831901
aF0.40211576511979402
asg5
(dp145
g7
F0.19215509531611999
ssg8
(dp146
g7
F0.159586774497293
ssg10
(lp147
F0.119619417316186
aF0.29212454654723102
aF0.58825603613658295
asg12
(dp148
g14
F71.127717900405997
sg15
F0.56262765957682903
sg16
F72.127717900405997
sg17
(lp149
(lp150
F80.747859827017393
aF1
aF1
aa(lp151
F1
aF80.747859827017393
aF1
aa(lp152
F1
aF1
aF80.747859827017393
aasg22
F0.45376292268862001
ssa(dp153
g3
(lp154
F0.399685395670907
aF0.40409494455443401
aF0.19621965977465899
asg5
(dp155
g7
F0.87244158486486401
ssg8
(dp156
g7
F0.27713941097841599
ssg10
(lp157
F0.473665468051848
aF0.41605478842931998
aF0.110279743518832
asg12
(dp158
g14
F76.940626517276698
sg15
F0.45689800363034
sg16
F77.940626517276698
sg17
(lp159
(lp160
F62.510262097921199
aF1
aF1
aa(lp161
F1
aF62.510262097921199
aF1
aa(lp162
F1
aF1
aF62.510262097921199
aasg22
F0.81899389277561596
ssa(dp163
g3
(lp164
F0.54567649025571596
aF0.152487693198574
aF0.30183581654571001
asg5
(dp165
g7
F0.88435925194178699
ssg8
(dp166
g7
F0.97300363026326497
ssg10
(lp167
F0.059389557948695701
aF0.56077457890658899
aF0.37983586314471501
asg12
(dp168
g14
F39.766123017769402
sg15
F0.098086351736565103
sg16
F40.766123017769402
sg17
(lp169
(lp170
F9.4178370206609507
aF1
aF1
aa(lp171
F1
aF9.4178370206609507
aF1
aa(lp172
F1
aF1
aF9.4178370206609507
aasg22
F0.36661654049996301
ssa.