(lp1
(dp2
S'mw_weights'
p3
(lp4
F0.40763325594376398
aF0.20242076787159299
aF0.389945976184643
asS'signaller_args'
p5
(dp6
S'share_weight'
p7
F0.12968048163340401
ssS'responder_args'
p8
(dp9
g7
F0.36404132826195601
ssS'women_weights'
p10
(lp11
F0.11239151751679601
aF0.364708237125696
aF0.52290024535750801
asS'game_args'
p12
(dp13
S'referral_cost'
p14
F70.113340660887204
sS'women_share_prob'
p15
F0.84328211336687697
sS'baby_payoff'
p16
F71.113340660887204
sS'type_weights'
p17
(lp18
(lp19
F73.3258810636069
aF1
aF1
aa(lp20
F1
aF73.3258810636069
aF1
aa(lp21
F1
aF1
aF73.3258810636069
aasS'mw_share_prob'
p22
F0.24817120799154499
ssa(dp23
g3
(lp24
F0.1085220492847
aF0.57675933945480395
aF0.314718611260496
asg5
(dp25
g7
F0.70071779830090197
ssg8
(dp26
g7
F0.88595301717519803
ssg10
(lp27
F0.153001289705927
aF0.50525277006653402
aF0.34174594022753901
asg12
(dp28
g14
F90.526913000587896
sg15
F0.51404589123732902
sg16
F91.526913000587896
sg17
(lp29
(lp30
F20.885417462243201
aF1
aF1
aa(lp31
F1
aF20.885417462243201
aF1
aa(lp32
F1
aF1
aF20.885417462243201
aasg22
F0.094626793449860996
ssa(dp33
g3
(lp34
F0.34125402547803502
aF0.60025976885847199
aF0.058486205663492802
asg5
(dp35
g7
F0.31360540810215798
ssg8
(dp36
g7
F0.81345655743149103
ssg10
(lp37
F0.217481325255554
aF0.45880324689491297
aF0.323715427849533
asg12
(dp38
g14
F69.455623523018502
sg15
F0.64756777645438002
sg16
F70.455623523018502
sg17
(lp39
(lp40
F7.9120845071116399
aF1
aF1
aa(lp41
F1
aF7.9120845071116399
aF1
aa(lp42
F1
aF1
aF7.9120845071116399
aasg22
F0.80451207139587499
ssa(dp43
g3
(lp44
F0.66824499362589695
aF0.21231903590953
aF0.11943597046457299
asg5
(dp45
g7
F0.47051748157711698
ssg8
(dp46
g7
F0.17142191168793899
ssg10
(lp47
F0.134617578201227
aF0.372437618606617
aF0.492944803192156
asg12
(dp48
g14
F34.314320297097296
sg15
F0.096280212983838306
sg16
F35.314320297097296
sg17
(lp49
(lp50
F71.958084395163397
aF1
aF1
aa(lp51
F1
aF71.958084395163397
aF1
aa(lp52
F1
aF1
aF71.958084395163397
aasg22
F0.73160163924447297
ssa(dp53
g3
(lp54
F0.32634762321592697
aF0.40455578221092597
aF0.269096594573147
asg5
(dp55
g7
F0.59570018410566306
ssg8
(dp56
g7
F0.49665219806192901
ssg10
(lp57
F0.36780328476291801
aF0.083423414512736299
aF0.54877330072434605
asg12
(dp58
g14
F48.8614651033661
sg15
F0.35303099445358399
sg16
F49.8614651033661
sg17
(lp59
(lp60
F55.491486351190801
aF1
aF1
aa(lp61
F1
aF55.491486351190801
aF1
aa(lp62
F1
aF1
aF55.491486351190801
aasg22
F0.238455544908065
ssa(dp63
g3
(lp64
F0.30184053010614398
aF0.34494931337912799
aF0.35321015651472898
asg5
(dp65
g7
F0.334388773009414
ssg8
(dp66
g7
F0.93583115736895695
ssg10
(lp67
F0.64460090071307397
aF0.20961904413241
aF0.145780055154517
asg12
(dp68
g14
F20.673378282099499
sg15
F0.287033792758011
sg16
F21.673378282099499
sg17
(lp69
(lp70
F60.5748051054548
aF1
aF1
aa(lp71
F1
aF60.5748051054548
aF1
aa(lp72
F1
aF1
aF60.5748051054548
aasg22
F0.69400220182258598
ssa(dp73
g3
(lp74
F0.12503205901035599
aF0.373021930462623
aF0.50194601052702104
asg5
(dp75
g7
F0.0869498463202035
ssg8
(dp76
g7
F0.0740954260790022
ssg10
(lp77
F0.342478917479349
aF0.33395327985898698
aF0.32356780266166402
asg12
(dp78
g14
F98.468986370514102
sg15
F0.32308187127869997
sg16
F99.468986370514102
sg17
(lp79
(lp80
F79.250476268653003
aF1
aF1
aa(lp81
F1
aF79.250476268653003
aF1
aa(lp82
F1
aF1
aF79.250476268653003
aasg22
F0.44421056186256502
ssa(dp83
g3
(lp84
F0.23123523044434499
aF0.30059398030365098
aF0.468170789252004
asg5
(dp85
g7
F0.423937529762625
ssg8
(dp86
g7
F0.111915609179414
ssg10
(lp87
F0.105262213412289
aF0.65924042982702202
aF0.235497356760689
asg12
(dp88
g14
F26.216060206679501
sg15
F0.58859681302914402
sg16
F27.216060206679501
sg17
(lp89
(lp90
F65.970534292467704
aF1
aF1
aa(lp91
F1
aF65.970534292467704
aF1
aa(lp92
F1
aF1
aF65.970534292467704
aasg22
F0.67689449960889803
ssa(dp93
g3
(lp94
F0.0376407293792713
aF0.688353823711505
aF0.27400544690922302
asg5
(dp95
g7
F0.18791214650438601
ssg8
(dp96
g7
F0.55179429963813198
ssg10
(lp97
F0.41577158192800601
aF0.28800726040730801
aF0.29622115766468599
asg12
(dp98
g14
F86.2172916151805
sg15
F0.39539556091709499
sg16
F87.2172916151805
sg17
(lp99
(lp100
F51.797191086182401
aF1
aF1
aa(lp101
F1
aF51.797191086182401
aF1
aa(lp102
F1
aF1
aF51.797191086182401
aasg22
F0.45585940972901901
ssa(dp103
g3
(lp104
F0.28549627342221301
aF0.42378363430473598
aF0.29072009227305101
asg5
(dp105
g7
F0.46818741334078401
ssg8
(dp106
g7
F0.73475313236180195
ssg10
(lp107
F0.23212837647960599
aF0.49349737811481798
aF0.27437424540557598
asg12
(dp108
g14
F60.039778166578202
sg15
F0.528545046947547
sg16
F61.039778166578202
sg17
(lp109
(lp110
F100
aF1
aF1
aa(lp111
F1
aF100
aF1
aa(lp112
F1
aF1
aF100
aasg22
F0.97968530877551496
ssa(dp113
g3
(lp114
F0.36973918983794202
aF0.34434360183008
aF0.28591720833197798
asg5
(dp115
g7
F0.32172796823899302
ssg8
(dp116
g7
F0.078863972374820193
ssg10
(lp117
F0.52410459344446203
aF0.094073846546309597
aF0.38182156000922801
asg12
(dp118
g14
F62.4838561997772
sg15
F0.10377146791375701
sg16
F63.4838561997772
sg17
(lp119
(lp120
F90.383343320421204
aF1
aF1
aa(lp121
F1
aF90.383343320421204
aF1
aa(lp122
F1
aF1
aF90.383343320421204
aasg22
F0.74667406452121199
ssa(dp123
g3
(lp124
F0.0034950011170298899
aF0.73911445008455101
aF0.25739054879841899
asg5
(dp125
g7
F0.350871768005309
ssg8
(dp126
g7
F0.40893014915403902
ssg10
(lp127
F0.054803247972606099
aF0.28743251646705698
aF0.65776423556033603
asg12
(dp128
g14
F70.675382048075804
sg15
F0.80091135075665099
sg16
F71.675382048075804
sg17
(lp129
(lp130
F47.607967507046901
aF1
aF1
aa(lp131
F1
aF47.607967507046901
aF1
aa(lp132
F1
aF1
aF47.607967507046901
aasg22
F0.38423526569386002
ssa(dp133
g3
(lp134
F0.010755561249308401
aF0.403233599916209
aF0.58601083883448302
asg5
(dp135
g7
F0.17514964359288601
ssg8
(dp136
g7
F0.91107802841812402
ssg10
(lp137
F0.526403355960951
aF0.270440049934701
aF0.203156594104348
asg12
(dp138
g14
F45.460931492058897
sg15
F0.13275698234327099
sg16
F46.460931492058897
sg17
(lp139
(lp140
F31.745344798327601
aF1
aF1
aa(lp141
F1
aF31.745344798327601
aF1
aa(lp142
F1
aF1
aF31.745344798327601
aasg22
F0.55443288238893695
ssa(dp143
g3
(lp144
F0.354381067031249
aF0.30357794549425099
aF0.34204098747450001
asg5
(dp145
g7
F0.24392718171293401
ssg8
(dp146
g7
F0.22518340154143501
ssg10
(lp147
F0.40676499188520798
aF0.15895119454376899
aF0.43428381357102203
asg12
(dp148
g14
F27.3627081343936
sg15
F0.36405787615338298
sg16
F28.3627081343936
sg17
(lp149
(lp150
F93.4540527307324
aF1
aF1
aa(lp151
F1
aF93.4540527307324
aF1
aa(lp152
F1
aF1
aF93.4540527307324
aasg22
F0.64036454651388297
ssa(dp153
g3
(lp154
F0.58436152414183495
aF0.0410932103912603
aF0.37454526546690498
asg5
(dp155
g7
F0.67568147383164601
ssg8
(dp156
g7
F0.44902359827421601
ssg10
(lp157
F0.40036551153140199
aF0.160453535948301
aF0.43918095252029699
asg12
(dp158
g14
F28.175126046992801
sg15
F0.25833331040164897
sg16
F29.175126046992801
sg17
(lp159
(lp160
F27.056113760958201
aF1
aF1
aa(lp161
F1
aF27.056113760958201
aF1
aa(lp162
F1
aF1
aF27.056113760958201
aasg22
F0.29826833277766102
ssa(dp163
g3
(lp164
F0.33672797285848499
aF0.245155729890107
aF0.41811629725140798
asg5
(dp165
g7
F0.98203121193975695
ssg8
(dp166
g7
F0.53666337334550895
ssg10
(lp167
F0.71807937075579398
aF0.199737659099614
aF0.082182970144592096
asg12
(dp168
g14
F98.675287319705106
sg15
F0.153356954178307
sg16
F99.675287319705106
sg17
(lp169
(lp170
F23.9655978673795
aF1
aF1
aa(lp171
F1
aF23.9655978673795
aF1
aa(lp172
F1
aF1
aF23.9655978673795
aasg22
F0.92395446883630905
ssa.