(lp1
(dp2
S'mw_weights'
p3
(lp4
F0.53187062980736599
aF0.27535065870208603
aF0.19277871149054801
asS'signaller_args'
p5
(dp6
S'share_weight'
p7
F0.78446456725883795
ssS'responder_args'
p8
(dp9
g7
F0.26432932338502702
ssS'women_weights'
p10
(lp11
F0.072837373350296594
aF0.33115613317313602
aF0.59600649347656798
asS'game_args'
p12
(dp13
S'referral_cost'
p14
F93.345350529504202
sS'women_share_prob'
p15
F0.090255648510064901
sS'baby_payoff'
p16
F94.345350529504202
sS'type_weights'
p17
(lp18
(lp19
F94.644706180156902
aF1
aF1
aa(lp20
F1
aF94.644706180156902
aF1
aa(lp21
F1
aF1
aF94.644706180156902
aasS'mw_share_prob'
p22
F0.68199029121489696
ssa(dp23
g3
(lp24
F0.068757672737621095
aF0.45366123955023302
aF0.47758108771214602
asg5
(dp25
g7
F0.67121604825020798
ssg8
(dp26
g7
F0.19438332475721801
ssg10
(lp27
F0.31712754283445699
aF0.356510199044279
aF0.32636225812126302
asg12
(dp28
g14
F52.677106160073897
sg15
F0.74357542537385601
sg16
F53.677106160073897
sg17
(lp29
(lp30
F58.244138952137298
aF1
aF1
aa(lp31
F1
aF58.244138952137298
aF1
aa(lp32
F1
aF1
aF58.244138952137298
aasg22
F0.96167950632399901
ssa(dp33
g3
(lp34
F0.28976734460640402
aF0.28863258388194002
aF0.42160007151165602
asg5
(dp35
g7
F0.76355564234079798
ssg8
(dp36
g7
F0.71483247467258504
ssg10
(lp37
F0.33823230313223601
aF0.342752304247744
aF0.31901539262001999
asg12
(dp38
g14
F83.617005372448403
sg15
F0.84645880876923896
sg16
F84.617005372448403
sg17
(lp39
(lp40
F47.881890903079302
aF1
aF1
aa(lp41
F1
aF47.881890903079302
aF1
aa(lp42
F1
aF1
aF47.881890903079302
aasg22
F0.980812213521567
ssa(dp43
g3
(lp44
F0.38360332852811702
aF0.21623932781295599
aF0.40015734365892702
asg5
(dp45
g7
F0.26451099029276498
ssg8
(dp46
g7
F0.0079860355355776905
ssg10
(lp47
F0.48372794586638701
aF0.21618831435921099
aF0.300083739774402
asg12
(dp48
g14
F16.6965582776993
sg15
F0.94311463307181798
sg16
F17.6965582776993
sg17
(lp49
(lp50
F57.519174557939202
aF1
aF1
aa(lp51
F1
aF57.519174557939202
aF1
aa(lp52
F1
aF1
aF57.519174557939202
aasg22
F0.049979212944163
ssa(dp53
g3
(lp54
F0.20200948453564099
aF0.21784995651342701
aF0.58014055895093197
asg5
(dp55
g7
F0.897131725439685
ssg8
(dp56
g7
F0.57311276838358005
ssg10
(lp57
F0.29038680461761401
aF0.43100004442968098
aF0.278613150952706
asg12
(dp58
g14
F87.768429594192199
sg15
F0.93019586236623597
sg16
F88.768429594192199
sg17
(lp59
(lp60
F82.950523356335907
aF1
aF1
aa(lp61
F1
aF82.950523356335907
aF1
aa(lp62
F1
aF1
aF82.950523356335907
aasg22
F0.92655411567189705
ssa(dp63
g3
(lp64
F0.47773786725302703
aF0.10330828949193301
aF0.41895384325503998
asg5
(dp65
g7
F0.31644752507680102
ssg8
(dp66
g7
F0.123759266072884
ssg10
(lp67
F0.12475856037034
aF0.069761891317126803
aF0.80547954831253299
asg12
(dp68
g14
F98.848536362065801
sg15
F0.62017731321509895
sg16
F99.848536362065801
sg17
(lp69
(lp70
F47.384174259549098
aF1
aF1
aa(lp71
F1
aF47.384174259549098
aF1
aa(lp72
F1
aF1
aF47.384174259549098
aasg22
F0.23530157877830801
ssa(dp73
g3
(lp74
F0.35831509412307699
aF0.27334295224421401
aF0.368341953632708
asg5
(dp75
g7
F0.92736691279627803
ssg8
(dp76
g7
F0.98586643681046504
ssg10
(lp77
F0.36207182288323198
aF0.596946492246194
aF0.040981684870573798
asg12
(dp78
g14
F2.6914850730451199
sg15
F0.91931547947635395
sg16
F3.6914850730451199
sg17
(lp79
(lp80
F5.3816959832058799
aF1
aF1
aa(lp81
F1
aF5.3816959832058799
aF1
aa(lp82
F1
aF1
aF5.3816959832058799
aasg22
F0.28419547124765798
ssa(dp83
g3
(lp84
F0.017792386931200801
aF0.079853699526822003
aF0.90235391354197703
asg5
(dp85
g7
F0.34628583478217501
ssg8
(dp86
g7
F0.50640746126591696
ssg10
(lp87
F0.41639124719167903
aF0.24386545830689499
aF0.33974329450142599
asg12
(dp88
g14
F14.9682794815223
sg15
F0.88861296742630702
sg16
F15.9682794815223
sg17
(lp89
(lp90
F35.715386741326498
aF1
aF1
aa(lp91
F1
aF35.715386741326498
aF1
aa(lp92
F1
aF1
aF35.715386741326498
aasg22
F0.56693037135119095
ssa(dp93
g3
(lp94
F0.44238328765975099
aF0.52407337043787094
aF0.033543341902378197
asg5
(dp95
g7
F0.050087369139073398
ssg8
(dp96
g7
F0.62412198181496903
ssg10
(lp97
F0.70137491836453802
aF0.092122545114281196
aF0.20650253652118
asg12
(dp98
g14
F8.8274201289751009
sg15
F0.31105662201065598
sg16
F9.8274201289751009
sg17
(lp99
(lp100
F8.0511171918752495
aF1
aF1
aa(lp101
F1
aF8.0511171918752495
aF1
aa(lp102
F1
aF1
aF8.0511171918752495
aasg22
F0.87153228560404405
ssa(dp103
g3
(lp104
F0.12880329939643201
aF0.35830544957499
aF0.51289125102857702
asg5
(dp105
g7
F0.83753031677915701
ssg8
(dp106
g7
F0.33237352719239399
ssg10
(lp107
F0.14292756127872799
aF0.73620957872016901
aF0.120862860001103
asg12
(dp108
g14
F13.135648329352099
sg15
F0.46905094326590202
sg16
F14.135648329352099
sg17
(lp109
(lp110
F61.349635871760597
aF1
aF1
aa(lp111
F1
aF61.349635871760597
aF1
aa(lp112
F1
aF1
aF61.349635871760597
aasg22
F0.040532752280705603
ssa(dp113
g3
(lp114
F0.51588467884385902
aF0.41667023017381499
aF0.067445090982326095
asg5
(dp115
g7
F0.49282942334597502
ssg8
(dp116
g7
F0.14343951736751501
ssg10
(lp117
F0.41037064599621698
aF0.47478822884389599
aF0.11484112515988699
asg12
(dp118
g14
F67.221247952384502
sg15
F0.0027108870103256799
sg16
F68.221247952384502
sg17
(lp119
(lp120
F31.513226334303699
aF1
aF1
aa(lp121
F1
aF31.513226334303699
aF1
aa(lp122
F1
aF1
aF31.513226334303699
aasg22
F0.82398486310907204
ssa(dp123
g3
(lp124
F0.35159239287920802
aF0.14093033197909799
aF0.50747727514169405
asg5
(dp125
g7
F0.47376878582290399
ssg8
(dp126
g7
F0.95063189281849203
ssg10
(lp127
F0.54910987001992395
aF0.061412825091753803
aF0.38947730488832299
asg12
(dp128
g14
F86.349983504113794
sg15
F0.59967329184291895
sg16
F87.349983504113794
sg17
(lp129
(lp130
F5.0032532932255398
aF1
aF1
aa(lp131
F1
aF5.0032532932255398
aF1
aa(lp132
F1
aF1
aF5.0032532932255398
aasg22
F0.0022394269291544301
ssa(dp133
g3
(lp134
F0.47038297635899701
aF0.217296396369484
aF0.31232062727151899
asg5
(dp135
g7
F0.95592135845334303
ssg8
(dp136
g7
F0.73987479440693305
ssg10
(lp137
F0.255074380345505
aF0.56457779428493504
aF0.18034782536956001
asg12
(dp138
g14
F30.8426050211236
sg15
F0.92164594189671301
sg16
F31.8426050211236
sg17
(lp139
(lp140
F10.789857467417701
aF1
aF1
aa(lp141
F1
aF10.789857467417701
aF1
aa(lp142
F1
aF1
aF10.789857467417701
aasg22
F0.34119492990081202
ssa(dp143
g3
(lp144
F0.420424942900538
aF0.54894186541768897
aF0.030633191681772899
asg5
(dp145
g7
F0.74166422449401603
ssg8
(dp146
g7
F0.0037930582906119501
ssg10
(lp147
F0.089286809299432904
aF0.40586839179880202
aF0.50484479890176504
asg12
(dp148
g14
F71.581226307286798
sg15
F0.197900475303177
sg16
F72.581226307286798
sg17
(lp149
(lp150
F75.745085482167198
aF1
aF1
aa(lp151
F1
aF75.745085482167198
aF1
aa(lp152
F1
aF1
aF75.745085482167198
aasg22
F0.435382881400874
ssa(dp153
g3
(lp154
F0.079384476591752906
aF0.091836754943437293
aF0.82877876846481002
asg5
(dp155
g7
F0.86122765674954305
ssg8
(dp156
g7
F0.377626981572248
ssg10
(lp157
F0.850317953933867
aF0.0183862559304903
aF0.13129579013564199
asg12
(dp158
g14
F0.76154494489676094
sg15
F0.94727010342583495
sg16
F1.7615449448967611
sg17
(lp159
(lp160
F3.1339069813382898
aF1
aF1
aa(lp161
F1
aF3.1339069813382898
aF1
aa(lp162
F1
aF1
aF3.1339069813382898
aasg22
F0.82140893290285
ssa(dp163
g3
(lp164
F0.59152597451097599
aF0.36821691981161903
aF0.040257105677404197
asg5
(dp165
g7
F0.0118237908405717
ssg8
(dp166
g7
F0.028447902926127401
ssg10
(lp167
F0.353780370612652
aF0.29073930537194798
aF0.35548032401539997
asg12
(dp168
g14
F83.176387881750699
sg15
F0.16298193258757199
sg16
F84.176387881750699
sg17
(lp169
(lp170
F78.223150316132703
aF1
aF1
aa(lp171
F1
aF78.223150316132703
aF1
aa(lp172
F1
aF1
aF78.223150316132703
aasg22
F0.53036246248288099
ssa.