(lp1
(dp2
S'signaller_args'
p3
(dp4
S'share_weight'
p5
F0.79000000000000004
ssS'game_args'
p6
(dp7
S'mw_share_bias'
p8
I1
sS'women_share_prob'
p9
F0.70999999999999996
sS'mw_share_prob'
p10
I0
ssa(dp11
g3
(dp12
g5
F0.80000000000000004
ssg6
(dp13
g8
I1
sg9
F0.70999999999999996
sg10
I0
ssa(dp14
g3
(dp15
g5
F0.81000000000000005
ssg6
(dp16
g8
I1
sg9
F0.70999999999999996
sg10
I0
ssa(dp17
g3
(dp18
g5
F0.82000000000000006
ssg6
(dp19
g8
I1
sg9
F0.70999999999999996
sg10
I0
ssa(dp20
g3
(dp21
g5
F0.83000000000000007
ssg6
(dp22
g8
I1
sg9
F0.70999999999999996
sg10
I0
ssa(dp23
g3
(dp24
g5
F0.83999999999999997
ssg6
(dp25
g8
I1
sg9
F0.70999999999999996
sg10
I0
ssa(dp26
g3
(dp27
g5
F0.84999999999999998
ssg6
(dp28
g8
I1
sg9
F0.70999999999999996
sg10
I0
ssa(dp29
g3
(dp30
g5
F0.85999999999999999
ssg6
(dp31
g8
I1
sg9
F0.70999999999999996
sg10
I0
ssa(dp32
g3
(dp33
g5
F0.87
ssg6
(dp34
g8
I1
sg9
F0.70999999999999996
sg10
I0
ssa(dp35
g3
(dp36
g5
F0.88
ssg6
(dp37
g8
I1
sg9
F0.70999999999999996
sg10
I0
ssa(dp38
g3
(dp39
g5
F0.89000000000000001
ssg6
(dp40
g8
I1
sg9
F0.70999999999999996
sg10
I0
ssa(dp41
g3
(dp42
g5
F0.90000000000000002
ssg6
(dp43
g8
I1
sg9
F0.70999999999999996
sg10
I0
ssa(dp44
g3
(dp45
g5
F0.91000000000000003
ssg6
(dp46
g8
I1
sg9
F0.70999999999999996
sg10
I0
ssa(dp47
g3
(dp48
g5
F0.92000000000000004
ssg6
(dp49
g8
I1
sg9
F0.70999999999999996
sg10
I0
ssa(dp50
g3
(dp51
g5
F0.93000000000000005
ssg6
(dp52
g8
I1
sg9
F0.70999999999999996
sg10
I0
ssa(dp53
g3
(dp54
g5
F0.94000000000000006
ssg6
(dp55
g8
I1
sg9
F0.70999999999999996
sg10
I0
ssa(dp56
g3
(dp57
g5
F0.95000000000000007
ssg6
(dp58
g8
I1
sg9
F0.70999999999999996
sg10
I0
ssa(dp59
g3
(dp60
g5
F0.95999999999999996
ssg6
(dp61
g8
I1
sg9
F0.70999999999999996
sg10
I0
ssa(dp62
g3
(dp63
g5
F0.96999999999999997
ssg6
(dp64
g8
I1
sg9
F0.70999999999999996
sg10
I0
ssa(dp65
g3
(dp66
g5
F0.97999999999999998
ssg6
(dp67
g8
I1
sg9
F0.70999999999999996
sg10
I0
ssa(dp68
g3
(dp69
g5
F0.98999999999999999
ssg6
(dp70
g8
I1
sg9
F0.70999999999999996
sg10
I0
ssa(dp71
g3
(dp72
g5
F1
ssg6
(dp73
g8
I1
sg9
F0.70999999999999996
sg10
I0
ssa(dp74
g3
(dp75
g5
F0
ssg6
(dp76
g8
I1
sg9
F0.71999999999999997
sg10
I0
ssa(dp77
g3
(dp78
g5
F0.01
ssg6
(dp79
g8
I1
sg9
F0.71999999999999997
sg10
I0
ssa(dp80
g3
(dp81
g5
F0.02
ssg6
(dp82
g8
I1
sg9
F0.71999999999999997
sg10
I0
ssa(dp83
g3
(dp84
g5
F0.029999999999999999
ssg6
(dp85
g8
I1
sg9
F0.71999999999999997
sg10
I0
ssa(dp86
g3
(dp87
g5
F0.040000000000000001
ssg6
(dp88
g8
I1
sg9
F0.71999999999999997
sg10
I0
ssa(dp89
g3
(dp90
g5
F0.050000000000000003
ssg6
(dp91
g8
I1
sg9
F0.71999999999999997
sg10
I0
ssa(dp92
g3
(dp93
g5
F0.059999999999999998
ssg6
(dp94
g8
I1
sg9
F0.71999999999999997
sg10
I0
ssa(dp95
g3
(dp96
g5
F0.070000000000000007
ssg6
(dp97
g8
I1
sg9
F0.71999999999999997
sg10
I0
ssa(dp98
g3
(dp99
g5
F0.080000000000000002
ssg6
(dp100
g8
I1
sg9
F0.71999999999999997
sg10
I0
ssa(dp101
g3
(dp102
g5
F0.089999999999999997
ssg6
(dp103
g8
I1
sg9
F0.71999999999999997
sg10
I0
ssa(dp104
g3
(dp105
g5
F0.10000000000000001
ssg6
(dp106
g8
I1
sg9
F0.71999999999999997
sg10
I0
ssa(dp107
g3
(dp108
g5
F0.11
ssg6
(dp109
g8
I1
sg9
F0.71999999999999997
sg10
I0
ssa(dp110
g3
(dp111
g5
F0.12
ssg6
(dp112
g8
I1
sg9
F0.71999999999999997
sg10
I0
ssa(dp113
g3
(dp114
g5
F0.13
ssg6
(dp115
g8
I1
sg9
F0.71999999999999997
sg10
I0
ssa(dp116
g3
(dp117
g5
F0.14000000000000001
ssg6
(dp118
g8
I1
sg9
F0.71999999999999997
sg10
I0
ssa(dp119
g3
(dp120
g5
F0.14999999999999999
ssg6
(dp121
g8
I1
sg9
F0.71999999999999997
sg10
I0
ssa(dp122
g3
(dp123
g5
F0.16
ssg6
(dp124
g8
I1
sg9
F0.71999999999999997
sg10
I0
ssa(dp125
g3
(dp126
g5
F0.17000000000000001
ssg6
(dp127
g8
I1
sg9
F0.71999999999999997
sg10
I0
ssa(dp128
g3
(dp129
g5
F0.17999999999999999
ssg6
(dp130
g8
I1
sg9
F0.71999999999999997
sg10
I0
ssa(dp131
g3
(dp132
g5
F0.19
ssg6
(dp133
g8
I1
sg9
F0.71999999999999997
sg10
I0
ssa(dp134
g3
(dp135
g5
F0.20000000000000001
ssg6
(dp136
g8
I1
sg9
F0.71999999999999997
sg10
I0
ssa(dp137
g3
(dp138
g5
F0.20999999999999999
ssg6
(dp139
g8
I1
sg9
F0.71999999999999997
sg10
I0
ssa(dp140
g3
(dp141
g5
F0.22
ssg6
(dp142
g8
I1
sg9
F0.71999999999999997
sg10
I0
ssa(dp143
g3
(dp144
g5
F0.23000000000000001
ssg6
(dp145
g8
I1
sg9
F0.71999999999999997
sg10
I0
ssa(dp146
g3
(dp147
g5
F0.23999999999999999
ssg6
(dp148
g8
I1
sg9
F0.71999999999999997
sg10
I0
ssa(dp149
g3
(dp150
g5
F0.25
ssg6
(dp151
g8
I1
sg9
F0.71999999999999997
sg10
I0
ssa(dp152
g3
(dp153
g5
F0.26000000000000001
ssg6
(dp154
g8
I1
sg9
F0.71999999999999997
sg10
I0
ssa(dp155
g3
(dp156
g5
F0.27000000000000002
ssg6
(dp157
g8
I1
sg9
F0.71999999999999997
sg10
I0
ssa.