(lp1
(dp2
S'women_weights'
p3
(lp4
F0.52000000000000002
aF0.26000000000000001
aF0.22
asa(dp5
g3
(lp6
F0.52000000000000002
aF0.27000000000000002
aF0.20999999999999999
asa(dp7
g3
(lp8
F0.52000000000000002
aF0.28000000000000003
aF0.20000000000000001
asa(dp9
g3
(lp10
F0.52000000000000002
aF0.28999999999999998
aF0.19
asa(dp11
g3
(lp12
F0.52000000000000002
aF0.29999999999999999
aF0.17999999999999999
asa(dp13
g3
(lp14
F0.52000000000000002
aF0.31
aF0.17000000000000001
asa(dp15
g3
(lp16
F0.52000000000000002
aF0.32000000000000001
aF0.16
asa(dp17
g3
(lp18
F0.52000000000000002
aF0.33000000000000002
aF0.14999999999999999
asa(dp19
g3
(lp20
F0.52000000000000002
aF0.34000000000000002
aF0.14000000000000001
asa(dp21
g3
(lp22
F0.52000000000000002
aF0.34999999999999998
aF0.13
asa(dp23
g3
(lp24
F0.52000000000000002
aF0.35999999999999999
aF0.12
asa(dp25
g3
(lp26
F0.52000000000000002
aF0.37
aF0.11
asa(dp27
g3
(lp28
F0.52000000000000002
aF0.38
aF0.10000000000000001
asa(dp29
g3
(lp30
F0.52000000000000002
aF0.39000000000000001
aF0.089999999999999997
asa(dp31
g3
(lp32
F0.52000000000000002
aF0.40000000000000002
aF0.080000000000000002
asa(dp33
g3
(lp34
F0.52000000000000002
aF0.40999999999999998
aF0.070000000000000007
asa(dp35
g3
(lp36
F0.52000000000000002
aF0.41999999999999998
aF0.059999999999999998
asa(dp37
g3
(lp38
F0.52000000000000002
aF0.42999999999999999
aF0.050000000000000003
asa(dp39
g3
(lp40
F0.52000000000000002
aF0.44
aF0.040000000000000001
asa(dp41
g3
(lp42
F0.52000000000000002
aF0.45000000000000001
aF0.029999999999999999
asa(dp43
g3
(lp44
F0.52000000000000002
aF0.46000000000000002
aF0.02
asa(dp45
g3
(lp46
F0.52000000000000002
aF0.46999999999999997
aF0.01
asa(dp47
g3
(lp48
F0.52000000000000002
aF0.47999999999999998
aF0
asa(dp49
g3
(lp50
F0.53000000000000003
aF0
aF0.46999999999999997
asa(dp51
g3
(lp52
F0.53000000000000003
aF0.01
aF0.46000000000000002
asa(dp53
g3
(lp54
F0.53000000000000003
aF0.02
aF0.45000000000000001
asa.