(lp1
(dp2
S'mw_weights'
p3
(lp4
I1
aI0
aI0
asS'num_women'
p5
I10
sS'num_midwives'
p6
I1
sa(dp7
g3
g4
sg5
I10
sg6
I1
sS'nested'
p8
I01
sa(dp9
g3
(lp10
I0
aI1
aI0
asg5
I10
sg6
I1
sa(dp11
g3
g10
sg5
I10
sg6
I1
sg8
I01
sa(dp12
g3
(lp13
I0
aI0
aI1
asg5
I10
sg6
I1
sa(dp14
g3
g13
sg5
I10
sg6
I1
sg8
I01
sa.