(lp1
(dp2
S'mw_priors'
p3
((lp4
I5
aF1
aF1
a(lp5
F1
aI5
aF1
a(lp6
F1
aF1
aI5
atp7
sa(dp8
g3
g7
sS'nested'
p9
I01
sa(dp10
g3
(g4
g6
g5
tp11
sa(dp12
g3
g11
sg9
I01
sa(dp13
g3
(g5
g4
g6
tp14
sa(dp15
g3
g14
sg9
I01
sa(dp16
g3
(g5
g6
g4
tp17
sa(dp18
g3
g17
sg9
I01
sa(dp19
g3
(g6
g4
g5
tp20
sa(dp21
g3
g20
sg9
I01
sa(dp22
g3
(g6
g5
g4
tp23
sa(dp24
g3
g23
sg9
I01
sa(dp25
g3
((lp26
I10
aF1
aF1
a(lp27
F1
aI10
aF1
a(lp28
F1
aF1
aI10
atp29
sa(dp30
g3
g29
sg9
I01
sa(dp31
g3
(g26
g28
g27
tp32
sa(dp33
g3
g32
sg9
I01
sa(dp34
g3
(g27
g26
g28
tp35
sa(dp36
g3
g35
sg9
I01
sa(dp37
g3
(g27
g28
g26
tp38
sa(dp39
g3
g38
sg9
I01
sa(dp40
g3
(g28
g26
g27
tp41
sa(dp42
g3
g41
sg9
I01
sa(dp43
g3
(g28
g27
g26
tp44
sa(dp45
g3
g44
sg9
I01
sa(dp46
g3
((lp47
I15
aF1
aF1
a(lp48
F1
aI15
aF1
a(lp49
F1
aF1
aI15
atp50
sa(dp51
g3
g50
sg9
I01
sa(dp52
g3
(g47
g49
g48
tp53
sa(dp54
g3
g53
sg9
I01
sa(dp55
g3
(g48
g47
g49
tp56
sa(dp57
g3
g56
sg9
I01
sa(dp58
g3
(g48
g49
g47
tp59
sa(dp60
g3
g59
sg9
I01
sa(dp61
g3
(g49
g47
g48
tp62
sa(dp63
g3
g62
sg9
I01
sa(dp64
g3
(g49
g48
g47
tp65
sa(dp66
g3
g65
sg9
I01
sa(dp67
g3
((lp68
I20
aF1
aF1
a(lp69
F1
aI20
aF1
a(lp70
F1
aF1
aI20
atp71
sa(dp72
g3
g71
sg9
I01
sa(dp73
g3
(g68
g70
g69
tp74
sa(dp75
g3
g74
sg9
I01
sa(dp76
g3
(g69
g68
g70
tp77
sa(dp78
g3
g77
sg9
I01
sa(dp79
g3
(g69
g70
g68
tp80
sa(dp81
g3
g80
sg9
I01
sa(dp82
g3
(g70
g68
g69
tp83
sa(dp84
g3
g83
sg9
I01
sa(dp85
g3
(g70
g69
g68
tp86
sa(dp87
g3
g86
sg9
I01
sa(dp88
g3
((lp89
I25
aF1
aF1
a(lp90
F1
aI25
aF1
a(lp91
F1
aF1
aI25
atp92
sa(dp93
g3
g92
sg9
I01
sa(dp94
g3
(g89
g91
g90
tp95
sa(dp96
g3
g95
sg9
I01
sa(dp97
g3
(g90
g89
g91
tp98
sa(dp99
g3
g98
sg9
I01
sa(dp100
g3
(g90
g91
g89
tp101
sa(dp102
g3
g101
sg9
I01
sa(dp103
g3
(g91
g89
g90
tp104
sa(dp105
g3
g104
sg9
I01
sa(dp106
g3
(g91
g90
g89
tp107
sa(dp108
g3
g107
sg9
I01
sa(dp109
g3
((lp110
I30
aF1
aF1
a(lp111
F1
aI30
aF1
a(lp112
F1
aF1
aI30
atp113
sa(dp114
g3
g113
sg9
I01
sa(dp115
g3
(g110
g112
g111
tp116
sa(dp117
g3
g116
sg9
I01
sa(dp118
g3
(g111
g110
g112
tp119
sa(dp120
g3
g119
sg9
I01
sa(dp121
g3
(g111
g112
g110
tp122
sa(dp123
g3
g122
sg9
I01
sa(dp124
g3
(g112
g110
g111
tp125
sa(dp126
g3
g125
sg9
I01
sa(dp127
g3
(g112
g111
g110
tp128
sa(dp129
g3
g128
sg9
I01
sa(dp130
g3
((lp131
I35
aF1
aF1
a(lp132
F1
aI35
aF1
a(lp133
F1
aF1
aI35
atp134
sa(dp135
g3
g134
sg9
I01
sa(dp136
g3
(g131
g133
g132
tp137
sa(dp138
g3
g137
sg9
I01
sa(dp139
g3
(g132
g131
g133
tp140
sa(dp141
g3
g140
sg9
I01
sa(dp142
g3
(g132
g133
g131
tp143
sa(dp144
g3
g143
sg9
I01
sa(dp145
g3
(g133
g131
g132
tp146
sa(dp147
g3
g146
sg9
I01
sa(dp148
g3
(g133
g132
g131
tp149
sa(dp150
g3
g149
sg9
I01
sa(dp151
g3
((lp152
I40
aF1
aF1
a(lp153
F1
aI40
aF1
a(lp154
F1
aF1
aI40
atp155
sa(dp156
g3
g155
sg9
I01
sa(dp157
g3
(g152
g154
g153
tp158
sa(dp159
g3
g158
sg9
I01
sa(dp160
g3
(g153
g152
g154
tp161
sa(dp162
g3
g161
sg9
I01
sa(dp163
g3
(g153
g154
g152
tp164
sa(dp165
g3
g164
sg9
I01
sa(dp166
g3
(g154
g152
g153
tp167
sa(dp168
g3
g167
sg9
I01
sa(dp169
g3
(g154
g153
g152
tp170
sa(dp171
g3
g170
sg9
I01
sa(dp172
g3
((lp173
I45
aF1
aF1
a(lp174
F1
aI45
aF1
a(lp175
F1
aF1
aI45
atp176
sa(dp177
g3
g176
sg9
I01
sa(dp178
g3
(g173
g175
g174
tp179
sa(dp180
g3
g179
sg9
I01
sa(dp181
g3
(g174
g173
g175
tp182
sa(dp183
g3
g182
sg9
I01
sa(dp184
g3
(g174
g175
g173
tp185
sa(dp186
g3
g185
sg9
I01
sa(dp187
g3
(g175
g173
g174
tp188
sa(dp189
g3
g188
sg9
I01
sa(dp190
g3
(g175
g174
g173
tp191
sa(dp192
g3
g191
sg9
I01
sa(dp193
g3
((lp194
I50
aF1
aF1
a(lp195
F1
aI50
aF1
a(lp196
F1
aF1
aI50
atp197
sa(dp198
g3
g197
sg9
I01
sa(dp199
g3
(g194
g196
g195
tp200
sa(dp201
g3
g200
sg9
I01
sa(dp202
g3
(g195
g194
g196
tp203
sa(dp204
g3
g203
sg9
I01
sa(dp205
g3
(g195
g196
g194
tp206
sa(dp207
g3
g206
sg9
I01
sa(dp208
g3
(g196
g194
g195
tp209
sa(dp210
g3
g209
sg9
I01
sa(dp211
g3
(g196
g195
g194
tp212
sa(dp213
g3
g212
sg9
I01
sa(dp214
g3
(lp215
(lp216
F1
aF1
aF1
aa(lp217
F1
aF1
aF1
aa(lp218
F1
aF1
aF1
aasa(dp219
g3
g215
sg9
I01
sa(dp220
g3
(lp221
(lp222
F2
aF1
aF1
aa(lp223
F1
aF2
aF1
aa(lp224
F1
aF1
aF2
aasa(dp225
g3
g221
sg9
I01
sa(dp226
g3
(lp227
(lp228
F3
aF1
aF1
aa(lp229
F1
aF3
aF1
aa(lp230
F1
aF1
aF3
aasa(dp231
g3
g227
sg9
I01
sa(dp232
g3
(lp233
(lp234
F4
aF1
aF1
aa(lp235
F1
aF4
aF1
aa(lp236
F1
aF1
aF4
aasa(dp237
g3
g233
sg9
I01
sa(dp238
g3
(lp239
(lp240
F5
aF1
aF1
aa(lp241
F1
aF5
aF1
aa(lp242
F1
aF1
aF5
aasa(dp243
g3
g239
sg9
I01
sa.