(lp1
(dp2
S'game_args'
p3
(dp4
S'mw_share_bias'
p5
F-0
sS'mw_share_width'
p6
F0
ssa(dp7
g3
(dp8
g5
F-0.10000000000000001
sg6
F0
ssa(dp9
g3
(dp10
g5
F-0.20000000000000001
sg6
F0
ssa(dp11
g3
(dp12
g5
F-0.29999999999999999
sg6
F0
ssa(dp13
g3
(dp14
g5
F-0.40000000000000002
sg6
F0
ssa(dp15
g3
(dp16
g5
F-0.5
sg6
F0
ssa(dp17
g3
(dp18
g5
F-0.59999999999999998
sg6
F0
ssa(dp19
g3
(dp20
g5
F-0.69999999999999996
sg6
F0
ssa(dp21
g3
(dp22
g5
F-0.80000000000000004
sg6
F0
ssa(dp23
g3
(dp24
g5
F-0.90000000000000002
sg6
F0
ssa(dp25
g3
(dp26
g5
F-1
sg6
F0
ssa(dp27
g3
(dp28
g5
F-0
sg6
F0.10000000000000001
ssa(dp29
g3
(dp30
g5
F-0.10000000000000001
sg6
F0.10000000000000001
ssa(dp31
g3
(dp32
g5
F-0.20000000000000001
sg6
F0.10000000000000001
ssa(dp33
g3
(dp34
g5
F-0.29999999999999999
sg6
F0.10000000000000001
ssa(dp35
g3
(dp36
g5
F-0.40000000000000002
sg6
F0.10000000000000001
ssa(dp37
g3
(dp38
g5
F-0.5
sg6
F0.10000000000000001
ssa(dp39
g3
(dp40
g5
F-0.59999999999999998
sg6
F0.10000000000000001
ssa(dp41
g3
(dp42
g5
F-0.69999999999999996
sg6
F0.10000000000000001
ssa(dp43
g3
(dp44
g5
F-0.80000000000000004
sg6
F0.10000000000000001
ssa(dp45
g3
(dp46
g5
F-0.90000000000000002
sg6
F0.10000000000000001
ssa(dp47
g3
(dp48
g5
F-1
sg6
F0.10000000000000001
ssa(dp49
g3
(dp50
g5
F-0
sg6
F0.20000000000000001
ssa(dp51
g3
(dp52
g5
F-0.10000000000000001
sg6
F0.20000000000000001
ssa(dp53
g3
(dp54
g5
F-0.20000000000000001
sg6
F0.20000000000000001
ssa(dp55
g3
(dp56
g5
F-0.29999999999999999
sg6
F0.20000000000000001
ssa(dp57
g3
(dp58
g5
F-0.40000000000000002
sg6
F0.20000000000000001
ssa(dp59
g3
(dp60
g5
F-0.5
sg6
F0.20000000000000001
ssa(dp61
g3
(dp62
g5
F-0.59999999999999998
sg6
F0.20000000000000001
ssa(dp63
g3
(dp64
g5
F-0.69999999999999996
sg6
F0.20000000000000001
ssa(dp65
g3
(dp66
g5
F-0.80000000000000004
sg6
F0.20000000000000001
ssa(dp67
g3
(dp68
g5
F-0.90000000000000002
sg6
F0.20000000000000001
ssa(dp69
g3
(dp70
g5
F-1
sg6
F0.20000000000000001
ssa(dp71
g3
(dp72
g5
F-0
sg6
F0.29999999999999999
ssa(dp73
g3
(dp74
g5
F-0.10000000000000001
sg6
F0.29999999999999999
ssa(dp75
g3
(dp76
g5
F-0.20000000000000001
sg6
F0.29999999999999999
ssa(dp77
g3
(dp78
g5
F-0.29999999999999999
sg6
F0.29999999999999999
ssa(dp79
g3
(dp80
g5
F-0.40000000000000002
sg6
F0.29999999999999999
ssa(dp81
g3
(dp82
g5
F-0.5
sg6
F0.29999999999999999
ssa(dp83
g3
(dp84
g5
F-0.59999999999999998
sg6
F0.29999999999999999
ssa(dp85
g3
(dp86
g5
F-0.69999999999999996
sg6
F0.29999999999999999
ssa(dp87
g3
(dp88
g5
F-0.80000000000000004
sg6
F0.29999999999999999
ssa(dp89
g3
(dp90
g5
F-0.90000000000000002
sg6
F0.29999999999999999
ssa(dp91
g3
(dp92
g5
F-1
sg6
F0.29999999999999999
ssa(dp93
g3
(dp94
g5
F-0
sg6
F0.40000000000000002
ssa(dp95
g3
(dp96
g5
F-0.10000000000000001
sg6
F0.40000000000000002
ssa(dp97
g3
(dp98
g5
F-0.20000000000000001
sg6
F0.40000000000000002
ssa(dp99
g3
(dp100
g5
F-0.29999999999999999
sg6
F0.40000000000000002
ssa(dp101
g3
(dp102
g5
F-0.40000000000000002
sg6
F0.40000000000000002
ssa(dp103
g3
(dp104
g5
F-0.5
sg6
F0.40000000000000002
ssa(dp105
g3
(dp106
g5
F-0.59999999999999998
sg6
F0.40000000000000002
ssa(dp107
g3
(dp108
g5
F-0.69999999999999996
sg6
F0.40000000000000002
ssa(dp109
g3
(dp110
g5
F-0.80000000000000004
sg6
F0.40000000000000002
ssa(dp111
g3
(dp112
g5
F-0.90000000000000002
sg6
F0.40000000000000002
ssa(dp113
g3
(dp114
g5
F-1
sg6
F0.40000000000000002
ssa(dp115
g3
(dp116
g5
F-0
sg6
F0.5
ssa(dp117
g3
(dp118
g5
F-0.10000000000000001
sg6
F0.5
ssa(dp119
g3
(dp120
g5
F-0.20000000000000001
sg6
F0.5
ssa(dp121
g3
(dp122
g5
F-0.29999999999999999
sg6
F0.5
ssa(dp123
g3
(dp124
g5
F-0.40000000000000002
sg6
F0.5
ssa(dp125
g3
(dp126
g5
F-0.5
sg6
F0.5
ssa(dp127
g3
(dp128
g5
F-0.59999999999999998
sg6
F0.5
ssa(dp129
g3
(dp130
g5
F-0.69999999999999996
sg6
F0.5
ssa(dp131
g3
(dp132
g5
F-0.80000000000000004
sg6
F0.5
ssa(dp133
g3
(dp134
g5
F-0.90000000000000002
sg6
F0.5
ssa(dp135
g3
(dp136
g5
F-1
sg6
F0.5
ssa(dp137
g3
(dp138
g5
F-0
sg6
F0.59999999999999998
ssa(dp139
g3
(dp140
g5
F-0.10000000000000001
sg6
F0.59999999999999998
ssa(dp141
g3
(dp142
g5
F-0.20000000000000001
sg6
F0.59999999999999998
ssa(dp143
g3
(dp144
g5
F-0.29999999999999999
sg6
F0.59999999999999998
ssa(dp145
g3
(dp146
g5
F-0.40000000000000002
sg6
F0.59999999999999998
ssa(dp147
g3
(dp148
g5
F-0.5
sg6
F0.59999999999999998
ssa(dp149
g3
(dp150
g5
F-0.59999999999999998
sg6
F0.59999999999999998
ssa(dp151
g3
(dp152
g5
F-0.69999999999999996
sg6
F0.59999999999999998
ssa(dp153
g3
(dp154
g5
F-0.80000000000000004
sg6
F0.59999999999999998
ssa(dp155
g3
(dp156
g5
F-0.90000000000000002
sg6
F0.59999999999999998
ssa(dp157
g3
(dp158
g5
F-1
sg6
F0.59999999999999998
ssa(dp159
g3
(dp160
g5
F-0
sg6
F0.69999999999999996
ssa(dp161
g3
(dp162
g5
F-0.10000000000000001
sg6
F0.69999999999999996
ssa(dp163
g3
(dp164
g5
F-0.20000000000000001
sg6
F0.69999999999999996
ssa(dp165
g3
(dp166
g5
F-0.29999999999999999
sg6
F0.69999999999999996
ssa(dp167
g3
(dp168
g5
F-0.40000000000000002
sg6
F0.69999999999999996
ssa(dp169
g3
(dp170
g5
F-0.5
sg6
F0.69999999999999996
ssa(dp171
g3
(dp172
g5
F-0.59999999999999998
sg6
F0.69999999999999996
ssa(dp173
g3
(dp174
g5
F-0.69999999999999996
sg6
F0.69999999999999996
ssa(dp175
g3
(dp176
g5
F-0.80000000000000004
sg6
F0.69999999999999996
ssa(dp177
g3
(dp178
g5
F-0.90000000000000002
sg6
F0.69999999999999996
ssa(dp179
g3
(dp180
g5
F-1
sg6
F0.69999999999999996
ssa(dp181
g3
(dp182
g5
F-0
sg6
F0.80000000000000004
ssa(dp183
g3
(dp184
g5
F-0.10000000000000001
sg6
F0.80000000000000004
ssa(dp185
g3
(dp186
g5
F-0.20000000000000001
sg6
F0.80000000000000004
ssa(dp187
g3
(dp188
g5
F-0.29999999999999999
sg6
F0.80000000000000004
ssa(dp189
g3
(dp190
g5
F-0.40000000000000002
sg6
F0.80000000000000004
ssa(dp191
g3
(dp192
g5
F-0.5
sg6
F0.80000000000000004
ssa(dp193
g3
(dp194
g5
F-0.59999999999999998
sg6
F0.80000000000000004
ssa(dp195
g3
(dp196
g5
F-0.69999999999999996
sg6
F0.80000000000000004
ssa(dp197
g3
(dp198
g5
F-0.80000000000000004
sg6
F0.80000000000000004
ssa(dp199
g3
(dp200
g5
F-0.90000000000000002
sg6
F0.80000000000000004
ssa(dp201
g3
(dp202
g5
F-1
sg6
F0.80000000000000004
ssa(dp203
g3
(dp204
g5
F-0
sg6
F0.90000000000000002
ssa(dp205
g3
(dp206
g5
F-0.10000000000000001
sg6
F0.90000000000000002
ssa(dp207
g3
(dp208
g5
F-0.20000000000000001
sg6
F0.90000000000000002
ssa(dp209
g3
(dp210
g5
F-0.29999999999999999
sg6
F0.90000000000000002
ssa(dp211
g3
(dp212
g5
F-0.40000000000000002
sg6
F0.90000000000000002
ssa(dp213
g3
(dp214
g5
F-0.5
sg6
F0.90000000000000002
ssa(dp215
g3
(dp216
g5
F-0.59999999999999998
sg6
F0.90000000000000002
ssa(dp217
g3
(dp218
g5
F-0.69999999999999996
sg6
F0.90000000000000002
ssa(dp219
g3
(dp220
g5
F-0.80000000000000004
sg6
F0.90000000000000002
ssa(dp221
g3
(dp222
g5
F-0.90000000000000002
sg6
F0.90000000000000002
ssa(dp223
g3
(dp224
g5
F-1
sg6
F0.90000000000000002
ssa(dp225
g3
(dp226
g5
F-0
sg6
F1
ssa(dp227
g3
(dp228
g5
F-0.10000000000000001
sg6
F1
ssa(dp229
g3
(dp230
g5
F-0.20000000000000001
sg6
F1
ssa(dp231
g3
(dp232
g5
F-0.29999999999999999
sg6
F1
ssa(dp233
g3
(dp234
g5
F-0.40000000000000002
sg6
F1
ssa(dp235
g3
(dp236
g5
F-0.5
sg6
F1
ssa(dp237
g3
(dp238
g5
F-0.59999999999999998
sg6
F1
ssa(dp239
g3
(dp240
g5
F-0.69999999999999996
sg6
F1
ssa(dp241
g3
(dp242
g5
F-0.80000000000000004
sg6
F1
ssa(dp243
g3
(dp244
g5
F-0.90000000000000002
sg6
F1
ssa(dp245
g3
(dp246
g5
F-1
sg6
F1
ssa.