(lp1
(dp2
S'signaller_args'
p3
(dp4
S'share_weight'
p5
F0
ssS'game_args'
p6
(dp7
S'mw_share_bias'
p8
I1
sS'women_share_prob'
p9
F0
sS'mw_share_prob'
p10
I0
ssa(dp11
g3
(dp12
g5
F0.10000000000000001
ssg6
(dp13
g8
I1
sg9
F0
sg10
I0
ssa(dp14
g3
(dp15
g5
F0.20000000000000001
ssg6
(dp16
g8
I1
sg9
F0
sg10
I0
ssa(dp17
g3
(dp18
g5
F0.29999999999999999
ssg6
(dp19
g8
I1
sg9
F0
sg10
I0
ssa(dp20
g3
(dp21
g5
F0.40000000000000002
ssg6
(dp22
g8
I1
sg9
F0
sg10
I0
ssa(dp23
g3
(dp24
g5
F0.5
ssg6
(dp25
g8
I1
sg9
F0
sg10
I0
ssa(dp26
g3
(dp27
g5
F0.59999999999999998
ssg6
(dp28
g8
I1
sg9
F0
sg10
I0
ssa(dp29
g3
(dp30
g5
F0.69999999999999996
ssg6
(dp31
g8
I1
sg9
F0
sg10
I0
ssa(dp32
g3
(dp33
g5
F0.80000000000000004
ssg6
(dp34
g8
I1
sg9
F0
sg10
I0
ssa(dp35
g3
(dp36
g5
F0.90000000000000002
ssg6
(dp37
g8
I1
sg9
F0
sg10
I0
ssa(dp38
g3
(dp39
g5
F1
ssg6
(dp40
g8
I1
sg9
F0
sg10
I0
ssa(dp41
g3
(dp42
g5
F0
ssg6
(dp43
g8
I1
sg9
F0.10000000000000001
sg10
I0
ssa(dp44
g3
(dp45
g5
F0.10000000000000001
ssg6
(dp46
g8
I1
sg9
F0.10000000000000001
sg10
I0
ssa(dp47
g3
(dp48
g5
F0.20000000000000001
ssg6
(dp49
g8
I1
sg9
F0.10000000000000001
sg10
I0
ssa(dp50
g3
(dp51
g5
F0.29999999999999999
ssg6
(dp52
g8
I1
sg9
F0.10000000000000001
sg10
I0
ssa(dp53
g3
(dp54
g5
F0.40000000000000002
ssg6
(dp55
g8
I1
sg9
F0.10000000000000001
sg10
I0
ssa(dp56
g3
(dp57
g5
F0.5
ssg6
(dp58
g8
I1
sg9
F0.10000000000000001
sg10
I0
ssa(dp59
g3
(dp60
g5
F0.59999999999999998
ssg6
(dp61
g8
I1
sg9
F0.10000000000000001
sg10
I0
ssa(dp62
g3
(dp63
g5
F0.69999999999999996
ssg6
(dp64
g8
I1
sg9
F0.10000000000000001
sg10
I0
ssa(dp65
g3
(dp66
g5
F0.80000000000000004
ssg6
(dp67
g8
I1
sg9
F0.10000000000000001
sg10
I0
ssa(dp68
g3
(dp69
g5
F0.90000000000000002
ssg6
(dp70
g8
I1
sg9
F0.10000000000000001
sg10
I0
ssa(dp71
g3
(dp72
g5
F1
ssg6
(dp73
g8
I1
sg9
F0.10000000000000001
sg10
I0
ssa(dp74
g3
(dp75
g5
F0
ssg6
(dp76
g8
I1
sg9
F0.20000000000000001
sg10
I0
ssa(dp77
g3
(dp78
g5
F0.10000000000000001
ssg6
(dp79
g8
I1
sg9
F0.20000000000000001
sg10
I0
ssa(dp80
g3
(dp81
g5
F0.20000000000000001
ssg6
(dp82
g8
I1
sg9
F0.20000000000000001
sg10
I0
ssa(dp83
g3
(dp84
g5
F0.29999999999999999
ssg6
(dp85
g8
I1
sg9
F0.20000000000000001
sg10
I0
ssa(dp86
g3
(dp87
g5
F0.40000000000000002
ssg6
(dp88
g8
I1
sg9
F0.20000000000000001
sg10
I0
ssa(dp89
g3
(dp90
g5
F0.5
ssg6
(dp91
g8
I1
sg9
F0.20000000000000001
sg10
I0
ssa(dp92
g3
(dp93
g5
F0.59999999999999998
ssg6
(dp94
g8
I1
sg9
F0.20000000000000001
sg10
I0
ssa(dp95
g3
(dp96
g5
F0.69999999999999996
ssg6
(dp97
g8
I1
sg9
F0.20000000000000001
sg10
I0
ssa(dp98
g3
(dp99
g5
F0.80000000000000004
ssg6
(dp100
g8
I1
sg9
F0.20000000000000001
sg10
I0
ssa(dp101
g3
(dp102
g5
F0.90000000000000002
ssg6
(dp103
g8
I1
sg9
F0.20000000000000001
sg10
I0
ssa(dp104
g3
(dp105
g5
F1
ssg6
(dp106
g8
I1
sg9
F0.20000000000000001
sg10
I0
ssa(dp107
g3
(dp108
g5
F0
ssg6
(dp109
g8
I1
sg9
F0.29999999999999999
sg10
I0
ssa(dp110
g3
(dp111
g5
F0.10000000000000001
ssg6
(dp112
g8
I1
sg9
F0.29999999999999999
sg10
I0
ssa(dp113
g3
(dp114
g5
F0.20000000000000001
ssg6
(dp115
g8
I1
sg9
F0.29999999999999999
sg10
I0
ssa(dp116
g3
(dp117
g5
F0.29999999999999999
ssg6
(dp118
g8
I1
sg9
F0.29999999999999999
sg10
I0
ssa(dp119
g3
(dp120
g5
F0.40000000000000002
ssg6
(dp121
g8
I1
sg9
F0.29999999999999999
sg10
I0
ssa(dp122
g3
(dp123
g5
F0.5
ssg6
(dp124
g8
I1
sg9
F0.29999999999999999
sg10
I0
ssa(dp125
g3
(dp126
g5
F0.59999999999999998
ssg6
(dp127
g8
I1
sg9
F0.29999999999999999
sg10
I0
ssa(dp128
g3
(dp129
g5
F0.69999999999999996
ssg6
(dp130
g8
I1
sg9
F0.29999999999999999
sg10
I0
ssa(dp131
g3
(dp132
g5
F0.80000000000000004
ssg6
(dp133
g8
I1
sg9
F0.29999999999999999
sg10
I0
ssa(dp134
g3
(dp135
g5
F0.90000000000000002
ssg6
(dp136
g8
I1
sg9
F0.29999999999999999
sg10
I0
ssa(dp137
g3
(dp138
g5
F1
ssg6
(dp139
g8
I1
sg9
F0.29999999999999999
sg10
I0
ssa(dp140
g3
(dp141
g5
F0
ssg6
(dp142
g8
I1
sg9
F0.40000000000000002
sg10
I0
ssa(dp143
g3
(dp144
g5
F0.10000000000000001
ssg6
(dp145
g8
I1
sg9
F0.40000000000000002
sg10
I0
ssa(dp146
g3
(dp147
g5
F0.20000000000000001
ssg6
(dp148
g8
I1
sg9
F0.40000000000000002
sg10
I0
ssa(dp149
g3
(dp150
g5
F0.29999999999999999
ssg6
(dp151
g8
I1
sg9
F0.40000000000000002
sg10
I0
ssa(dp152
g3
(dp153
g5
F0.40000000000000002
ssg6
(dp154
g8
I1
sg9
F0.40000000000000002
sg10
I0
ssa(dp155
g3
(dp156
g5
F0.5
ssg6
(dp157
g8
I1
sg9
F0.40000000000000002
sg10
I0
ssa(dp158
g3
(dp159
g5
F0.59999999999999998
ssg6
(dp160
g8
I1
sg9
F0.40000000000000002
sg10
I0
ssa(dp161
g3
(dp162
g5
F0.69999999999999996
ssg6
(dp163
g8
I1
sg9
F0.40000000000000002
sg10
I0
ssa(dp164
g3
(dp165
g5
F0.80000000000000004
ssg6
(dp166
g8
I1
sg9
F0.40000000000000002
sg10
I0
ssa(dp167
g3
(dp168
g5
F0.90000000000000002
ssg6
(dp169
g8
I1
sg9
F0.40000000000000002
sg10
I0
ssa(dp170
g3
(dp171
g5
F1
ssg6
(dp172
g8
I1
sg9
F0.40000000000000002
sg10
I0
ssa(dp173
g3
(dp174
g5
F0
ssg6
(dp175
g8
I1
sg9
F0.5
sg10
I0
ssa(dp176
g3
(dp177
g5
F0.10000000000000001
ssg6
(dp178
g8
I1
sg9
F0.5
sg10
I0
ssa(dp179
g3
(dp180
g5
F0.20000000000000001
ssg6
(dp181
g8
I1
sg9
F0.5
sg10
I0
ssa(dp182
g3
(dp183
g5
F0.29999999999999999
ssg6
(dp184
g8
I1
sg9
F0.5
sg10
I0
ssa(dp185
g3
(dp186
g5
F0.40000000000000002
ssg6
(dp187
g8
I1
sg9
F0.5
sg10
I0
ssa(dp188
g3
(dp189
g5
F0.5
ssg6
(dp190
g8
I1
sg9
F0.5
sg10
I0
ssa(dp191
g3
(dp192
g5
F0.59999999999999998
ssg6
(dp193
g8
I1
sg9
F0.5
sg10
I0
ssa(dp194
g3
(dp195
g5
F0.69999999999999996
ssg6
(dp196
g8
I1
sg9
F0.5
sg10
I0
ssa(dp197
g3
(dp198
g5
F0.80000000000000004
ssg6
(dp199
g8
I1
sg9
F0.5
sg10
I0
ssa(dp200
g3
(dp201
g5
F0.90000000000000002
ssg6
(dp202
g8
I1
sg9
F0.5
sg10
I0
ssa(dp203
g3
(dp204
g5
F1
ssg6
(dp205
g8
I1
sg9
F0.5
sg10
I0
ssa(dp206
g3
(dp207
g5
F0
ssg6
(dp208
g8
I1
sg9
F0.59999999999999998
sg10
I0
ssa(dp209
g3
(dp210
g5
F0.10000000000000001
ssg6
(dp211
g8
I1
sg9
F0.59999999999999998
sg10
I0
ssa(dp212
g3
(dp213
g5
F0.20000000000000001
ssg6
(dp214
g8
I1
sg9
F0.59999999999999998
sg10
I0
ssa(dp215
g3
(dp216
g5
F0.29999999999999999
ssg6
(dp217
g8
I1
sg9
F0.59999999999999998
sg10
I0
ssa(dp218
g3
(dp219
g5
F0.40000000000000002
ssg6
(dp220
g8
I1
sg9
F0.59999999999999998
sg10
I0
ssa(dp221
g3
(dp222
g5
F0.5
ssg6
(dp223
g8
I1
sg9
F0.59999999999999998
sg10
I0
ssa(dp224
g3
(dp225
g5
F0.59999999999999998
ssg6
(dp226
g8
I1
sg9
F0.59999999999999998
sg10
I0
ssa(dp227
g3
(dp228
g5
F0.69999999999999996
ssg6
(dp229
g8
I1
sg9
F0.59999999999999998
sg10
I0
ssa(dp230
g3
(dp231
g5
F0.80000000000000004
ssg6
(dp232
g8
I1
sg9
F0.59999999999999998
sg10
I0
ssa(dp233
g3
(dp234
g5
F0.90000000000000002
ssg6
(dp235
g8
I1
sg9
F0.59999999999999998
sg10
I0
ssa(dp236
g3
(dp237
g5
F1
ssg6
(dp238
g8
I1
sg9
F0.59999999999999998
sg10
I0
ssa(dp239
g3
(dp240
g5
F0
ssg6
(dp241
g8
I1
sg9
F0.69999999999999996
sg10
I0
ssa(dp242
g3
(dp243
g5
F0.10000000000000001
ssg6
(dp244
g8
I1
sg9
F0.69999999999999996
sg10
I0
ssa(dp245
g3
(dp246
g5
F0.20000000000000001
ssg6
(dp247
g8
I1
sg9
F0.69999999999999996
sg10
I0
ssa(dp248
g3
(dp249
g5
F0.29999999999999999
ssg6
(dp250
g8
I1
sg9
F0.69999999999999996
sg10
I0
ssa(dp251
g3
(dp252
g5
F0.40000000000000002
ssg6
(dp253
g8
I1
sg9
F0.69999999999999996
sg10
I0
ssa(dp254
g3
(dp255
g5
F0.5
ssg6
(dp256
g8
I1
sg9
F0.69999999999999996
sg10
I0
ssa(dp257
g3
(dp258
g5
F0.59999999999999998
ssg6
(dp259
g8
I1
sg9
F0.69999999999999996
sg10
I0
ssa(dp260
g3
(dp261
g5
F0.69999999999999996
ssg6
(dp262
g8
I1
sg9
F0.69999999999999996
sg10
I0
ssa(dp263
g3
(dp264
g5
F0.80000000000000004
ssg6
(dp265
g8
I1
sg9
F0.69999999999999996
sg10
I0
ssa(dp266
g3
(dp267
g5
F0.90000000000000002
ssg6
(dp268
g8
I1
sg9
F0.69999999999999996
sg10
I0
ssa(dp269
g3
(dp270
g5
F1
ssg6
(dp271
g8
I1
sg9
F0.69999999999999996
sg10
I0
ssa(dp272
g3
(dp273
g5
F0
ssg6
(dp274
g8
I1
sg9
F0.80000000000000004
sg10
I0
ssa(dp275
g3
(dp276
g5
F0.10000000000000001
ssg6
(dp277
g8
I1
sg9
F0.80000000000000004
sg10
I0
ssa(dp278
g3
(dp279
g5
F0.20000000000000001
ssg6
(dp280
g8
I1
sg9
F0.80000000000000004
sg10
I0
ssa(dp281
g3
(dp282
g5
F0.29999999999999999
ssg6
(dp283
g8
I1
sg9
F0.80000000000000004
sg10
I0
ssa(dp284
g3
(dp285
g5
F0.40000000000000002
ssg6
(dp286
g8
I1
sg9
F0.80000000000000004
sg10
I0
ssa(dp287
g3
(dp288
g5
F0.5
ssg6
(dp289
g8
I1
sg9
F0.80000000000000004
sg10
I0
ssa(dp290
g3
(dp291
g5
F0.59999999999999998
ssg6
(dp292
g8
I1
sg9
F0.80000000000000004
sg10
I0
ssa(dp293
g3
(dp294
g5
F0.69999999999999996
ssg6
(dp295
g8
I1
sg9
F0.80000000000000004
sg10
I0
ssa(dp296
g3
(dp297
g5
F0.80000000000000004
ssg6
(dp298
g8
I1
sg9
F0.80000000000000004
sg10
I0
ssa(dp299
g3
(dp300
g5
F0.90000000000000002
ssg6
(dp301
g8
I1
sg9
F0.80000000000000004
sg10
I0
ssa(dp302
g3
(dp303
g5
F1
ssg6
(dp304
g8
I1
sg9
F0.80000000000000004
sg10
I0
ssa(dp305
g3
(dp306
g5
F0
ssg6
(dp307
g8
I1
sg9
F0.90000000000000002
sg10
I0
ssa(dp308
g3
(dp309
g5
F0.10000000000000001
ssg6
(dp310
g8
I1
sg9
F0.90000000000000002
sg10
I0
ssa(dp311
g3
(dp312
g5
F0.20000000000000001
ssg6
(dp313
g8
I1
sg9
F0.90000000000000002
sg10
I0
ssa(dp314
g3
(dp315
g5
F0.29999999999999999
ssg6
(dp316
g8
I1
sg9
F0.90000000000000002
sg10
I0
ssa(dp317
g3
(dp318
g5
F0.40000000000000002
ssg6
(dp319
g8
I1
sg9
F0.90000000000000002
sg10
I0
ssa(dp320
g3
(dp321
g5
F0.5
ssg6
(dp322
g8
I1
sg9
F0.90000000000000002
sg10
I0
ssa(dp323
g3
(dp324
g5
F0.59999999999999998
ssg6
(dp325
g8
I1
sg9
F0.90000000000000002
sg10
I0
ssa(dp326
g3
(dp327
g5
F0.69999999999999996
ssg6
(dp328
g8
I1
sg9
F0.90000000000000002
sg10
I0
ssa(dp329
g3
(dp330
g5
F0.80000000000000004
ssg6
(dp331
g8
I1
sg9
F0.90000000000000002
sg10
I0
ssa(dp332
g3
(dp333
g5
F0.90000000000000002
ssg6
(dp334
g8
I1
sg9
F0.90000000000000002
sg10
I0
ssa(dp335
g3
(dp336
g5
F1
ssg6
(dp337
g8
I1
sg9
F0.90000000000000002
sg10
I0
ssa(dp338
g3
(dp339
g5
F0
ssg6
(dp340
g8
I1
sg9
F1
sg10
I0
ssa(dp341
g3
(dp342
g5
F0.10000000000000001
ssg6
(dp343
g8
I1
sg9
F1
sg10
I0
ssa(dp344
g3
(dp345
g5
F0.20000000000000001
ssg6
(dp346
g8
I1
sg9
F1
sg10
I0
ssa(dp347
g3
(dp348
g5
F0.29999999999999999
ssg6
(dp349
g8
I1
sg9
F1
sg10
I0
ssa(dp350
g3
(dp351
g5
F0.40000000000000002
ssg6
(dp352
g8
I1
sg9
F1
sg10
I0
ssa(dp353
g3
(dp354
g5
F0.5
ssg6
(dp355
g8
I1
sg9
F1
sg10
I0
ssa(dp356
g3
(dp357
g5
F0.59999999999999998
ssg6
(dp358
g8
I1
sg9
F1
sg10
I0
ssa(dp359
g3
(dp360
g5
F0.69999999999999996
ssg6
(dp361
g8
I1
sg9
F1
sg10
I0
ssa(dp362
g3
(dp363
g5
F0.80000000000000004
ssg6
(dp364
g8
I1
sg9
F1
sg10
I0
ssa(dp365
g3
(dp366
g5
F0.90000000000000002
ssg6
(dp367
g8
I1
sg9
F1
sg10
I0
ssa(dp368
g3
(dp369
g5
F1
ssg6
(dp370
g8
I1
sg9
F1
sg10
I0
ssa.